(dp0
I0
ccopy_reg
_reconstructor
p1
(cbson.int64
Int64
p2
c__builtin__
long
p3
L7676077502L
tp4
Rp5
sI1
g1
(g2
g3
L7808421746L
tp6
Rp7
sI2
g1
(g2
g3
L5947183906L
tp8
Rp9
sI3
g1
(g2
g3
L7570415532L
tp10
Rp11
sI4
I77131556
sI5
g1
(g2
g3
L5275207031L
tp12
Rp13
sI6
g1
(g2
g3
L2465277674L
tp14
Rp15
sI7
I336809712
sI8
g1
(g2
g3
L8951440625L
tp16
Rp17
sI9
I827968291
sI10
g1
(g2
g3
L5465421614L
tp18
Rp19
sI11
g1
(g2
g3
L8081025619L
tp20
Rp21
sI12
g1
(g2
g3
L6683804657L
tp22
Rp23
sI13
I286207421
sI14
g1
(g2
g3
L6245896023L
tp24
Rp25
sI15
g1
(g2
g3
L5428225532L
tp26
Rp27
sI16
g1
(g2
g3
L5663088443L
tp28
Rp29
sI17
g1
(g2
g3
L5020799287L
tp30
Rp31
sI18
g1
(g2
g3
L7059014449L
tp32
Rp33
sI19
g1
(g2
g3
L4617204456L
tp34
Rp35
sI20
g1
(g2
g3
L4977813981L
tp36
Rp37
sI21
g1
(g2
g3
L6960827981L
tp38
Rp39
sI22
I594668974
sI23
g1
(g2
g3
L2208780129L
tp40
Rp41
sI24
g1
(g2
g3
L6033775640L
tp42
Rp43
sI25
g1
(g2
g3
L2370430294L
tp44
Rp45
sI26
g1
(g2
g3
L5040100163L
tp46
Rp47
sI27
g1
(g2
g3
L5822431276L
tp48
Rp49
sI28
I206355906
sI29
g1
(g2
g3
L2969061532L
tp50
Rp51
sI30
g1
(g2
g3
L3458282140L
tp52
Rp53
sI31
g1
(g2
g3
L3843226901L
tp54
Rp55
sI32
g1
(g2
g3
L3755130861L
tp56
Rp57
sI33
g1
(g2
g3
L4311844877L
tp58
Rp59
sI34
I229433631
sI35
g1
(g2
g3
L5255224137L
tp60
Rp61
sI36
I45091668
sI37
g1
(g2
g3
L4794369110L
tp62
Rp63
sI38
g1
(g2
g3
L4689617758L
tp64
Rp65
sI39
g1
(g2
g3
L8707634278L
tp66
Rp67
sI40
I1788057047
sI41
g1
(g2
g3
L8111955732L
tp68
Rp69
sI42
g1
(g2
g3
L4944092252L
tp70
Rp71
sI43
g1
(g2
g3
L13405977393L
tp72
Rp73
sI44
g1
(g2
g3
L4840323254L
tp74
Rp75
sI45
g1
(g2
g3
L3112264817L
tp76
Rp77
sI46
g1
(g2
g3
L6295982812L
tp78
Rp79
sI47
g1
(g2
g3
L3348783001L
tp80
Rp81
sI48
I45968965
sI49
g1
(g2
g3
L5581616117L
tp82
Rp83
sI50
g1
(g2
g3
L8707636782L
tp84
Rp85
sI51
I333083751
sI52
g1
(g2
g3
L3109890122L
tp86
Rp87
sI53
g1
(g2
g3
L2288276173L
tp88
Rp89
sI54
g1
(g2
g3
L4442080213L
tp90
Rp91
sI55
g1
(g2
g3
L8696272020L
tp92
Rp93
sI56
I2102412589
sI57
g1
(g2
g3
L4904951532L
tp94
Rp95
sI58
g1
(g2
g3
L7445445016L
tp96
Rp97
sI59
I443731131
sI60
g1
(g2
g3
L8467339731L
tp98
Rp99
sI61
g1
(g2
g3
L8350413255L
tp100
Rp101
sI62
g1
(g2
g3
L9488169042L
tp102
Rp103
sI63
g1
(g2
g3
L5269607088L
tp104
Rp105
sI64
g1
(g2
g3
L5571123486L
tp106
Rp107
sI65
g1
(g2
g3
L2994254261L
tp108
Rp109
sI66
g1
(g2
g3
L6683809175L
tp110
Rp111
sI67
g1
(g2
g3
L4566202935L
tp112
Rp113
sI68
g1
(g2
g3
L4652731914L
tp114
Rp115
sI69
g1
(g2
g3
L2848891388L
tp116
Rp117
sI70
I112258000
sI71
g1
(g2
g3
L7489646730L
tp118
Rp119
sI72
g1
(g2
g3
L3349065582L
tp120
Rp121
sI73
g1
(g2
g3
L5941642080L
tp122
Rp123
sI74
g1
(g2
g3
L2390178298L
tp124
Rp125
sI75
g1
(g2
g3
L2539718712L
tp126
Rp127
sI76
g1
(g2
g3
L2526575788L
tp128
Rp129
sI77
g1
(g2
g3
L2716154001L
tp130
Rp131
sI78
g1
(g2
g3
L5249882772L
tp132
Rp133
sI79
I311689852
sI80
I63253036
sI81
g1
(g2
g3
L2495345782L
tp134
Rp135
sI82
I366625604
sI83
g1
(g2
g3
L8703620657L
tp136
Rp137
sI84
g1
(g2
g3
L6602734997L
tp138
Rp139
sI85
g1
(g2
g3
L5543627961L
tp140
Rp141
sI86
g1
(g2
g3
L6669415903L
tp142
Rp143
sI87
I932943680
sI88
g1
(g2
g3
L4797303424L
tp144
Rp145
sI89
g1
(g2
g3
L7492244036L
tp146
Rp147
sI90
g1
(g2
g3
L2885633974L
tp148
Rp149
sI91
g1
(g2
g3
L6070427729L
tp150
Rp151
sI92
g1
(g2
g3
L5552742965L
tp152
Rp153
sI93
g1
(g2
g3
L7599268916L
tp154
Rp155
sI94
g1
(g2
g3
L9175205302L
tp156
Rp157
sI95
g1
(g2
g3
L2527998594L
tp158
Rp159
sI96
g1
(g2
g3
L8149703474L
tp160
Rp161
sI97
I462929114
sI98
I267119101
sI99
g1
(g2
g3
L2502594674L
tp162
Rp163
sI100
I1509021658
sI101
g1
(g2
g3
L6054739445L
tp164
Rp165
sI102
g1
(g2
g3
L6462501571L
tp166
Rp167
sI103
g1
(g2
g3
L3790283307L
tp168
Rp169
sI104
g1
(g2
g3
L2259713535L
tp170
Rp171
sI105
g1
(g2
g3
L2481973828L
tp172
Rp173
sI106
g1
(g2
g3
L2822038952L
tp174
Rp175
sI107
g1
(g2
g3
L6831752962L
tp176
Rp177
sI108
I1094738345
sI109
g1
(g2
g3
L7413044200L
tp178
Rp179
sI110
I932971154
sI111
g1
(g2
g3
L6081995723L
tp180
Rp181
sI112
g1
(g2
g3
L5207961172L
tp182
Rp183
sI113
g1
(g2
g3
L2322289278L
tp184
Rp185
sI114
g1
(g2
g3
L3625819232L
tp186
Rp187
sI115
g1
(g2
g3
L8704377388L
tp188
Rp189
sI116
g1
(g2
g3
L5702015289L
tp190
Rp191
sI117
g1
(g2
g3
L4092061369L
tp192
Rp193
sI118
g1
(g2
g3
L5421040895L
tp194
Rp195
sI119
g1
(g2
g3
L11620797653L
tp196
Rp197
sI120
g1
(g2
g3
L4678184340L
tp198
Rp199
sI121
g1
(g2
g3
L9642845007L
tp200
Rp201
sI122
I120569054
sI123
g1
(g2
g3
L6227768108L
tp202
Rp203
sI124
I1494536126
sI125
I427832390
sI126
g1
(g2
g3
L5627891807L
tp204
Rp205
sI127
g1
(g2
g3
L8532310524L
tp206
Rp207
sI128
g1
(g2
g3
L9097177435L
tp208
Rp209
sI129
g1
(g2
g3
L3591544233L
tp210
Rp211
sI130
g1
(g2
g3
L5629944757L
tp212
Rp213
sI131
g1
(g2
g3
L2294687673L
tp214
Rp215
sI132
g1
(g2
g3
L12922159115L
tp216
Rp217
sI133
g1
(g2
g3
L3281514961L
tp218
Rp219
sI134
g1
(g2
g3
L4332619172L
tp220
Rp221
sI135
g1
(g2
g3
L3737237584L
tp222
Rp223
sI136
I2045480311
sI137
I108468608
sI138
g1
(g2
g3
L2542365745L
tp224
Rp225
sI139
I24958145
sI140
I265756715
sI141
g1
(g2
g3
L5026392752L
tp226
Rp227
sI142
g1
(g2
g3
L2615180981L
tp228
Rp229
sI143
g1
(g2
g3
L6107458021L
tp230
Rp231
sI144
I114323865
sI145
g1
(g2
g3
L2841687560L
tp232
Rp233
sI146
g1
(g2
g3
L10311198316L
tp234
Rp235
sI147
g1
(g2
g3
L6953583355L
tp236
Rp237
sI148
g1
(g2
g3
L2733257776L
tp238
Rp239
sI149
g1
(g2
g3
L9490596002L
tp240
Rp241
sI150
g1
(g2
g3
L8162145369L
tp242
Rp243
sI151
g1
(g2
g3
L5249278271L
tp244
Rp245
sI152
g1
(g2
g3
L8235000382L
tp246
Rp247
sI153
g1
(g2
g3
L7673631790L
tp248
Rp249
sI154
I858925293
sI155
g1
(g2
g3
L3468239977L
tp250
Rp251
sI156
g1
(g2
g3
L4052258402L
tp252
Rp253
sI157
g1
(g2
g3
L4450124856L
tp254
Rp255
sI158
I958017150
sI159
g1
(g2
g3
L2808915769L
tp256
Rp257
sI160
g1
(g2
g3
L5244667032L
tp258
Rp259
sI161
g1
(g2
g3
L5986220973L
tp260
Rp261
sI162
I2046464863
sI163
g1
(g2
g3
L2347510757L
tp262
Rp263
sI164
g1
(g2
g3
L5883070054L
tp264
Rp265
sI165
g1
(g2
g3
L5642936565L
tp266
Rp267
sI166
I473874786
sI167
g1
(g2
g3
L2842425486L
tp268
Rp269
sI168
g1
(g2
g3
L2197203997L
tp270
Rp271
sI169
g1
(g2
g3
L5424307661L
tp272
Rp273
sI170
g1
(g2
g3
L2764520341L
tp274
Rp275
sI171
g1
(g2
g3
L7196543710L
tp276
Rp277
sI172
g1
(g2
g3
L8676997957L
tp278
Rp279
sI173
g1
(g2
g3
L5173879514L
tp280
Rp281
sI174
g1
(g2
g3
L2773676044L
tp282
Rp283
sI175
g1
(g2
g3
L4718871884L
tp284
Rp285
sI176
g1
(g2
g3
L6603787501L
tp286
Rp287
sI177
g1
(g2
g3
L5674892443L
tp288
Rp289
sI178
g1
(g2
g3
L8062071325L
tp290
Rp291
sI179
I2059407089
sI180
g1
(g2
g3
L2193841390L
tp292
Rp293
sI181
g1
(g2
g3
L8097908201L
tp294
Rp295
sI182
g1
(g2
g3
L4303841732L
tp296
Rp297
sI183
I488373433
sI184
g1
(g2
g3
L6259866281L
tp298
Rp299
sI185
g1
(g2
g3
L4138415776L
tp300
Rp301
sI186
g1
(g2
g3
L8455795131L
tp302
Rp303
sI187
I396426279
sI188
g1
(g2
g3
L4106412032L
tp304
Rp305
sI189
g1
(g2
g3
L9968557793L
tp306
Rp307
sI190
I348386912
sI191
I477323220
sI192
g1
(g2
g3
L5511591826L
tp308
Rp309
sI193
g1
(g2
g3
L4943055503L
tp310
Rp311
sI194
g1
(g2
g3
L6587584867L
tp312
Rp313
sI195
g1
(g2
g3
L2443127728L
tp314
Rp315
sI196
g1
(g2
g3
L4578847396L
tp316
Rp317
sI197
I507936954
sI198
g1
(g2
g3
L5881771627L
tp318
Rp319
sI199
g1
(g2
g3
L3871482773L
tp320
Rp321
sI200
g1
(g2
g3
L4698062015L
tp322
Rp323
sI201
g1
(g2
g3
L6842689606L
tp324
Rp325
sI202
g1
(g2
g3
L9083737152L
tp326
Rp327
sI203
I964267648
sI204
I819676286
sI205
g1
(g2
g3
L4655331141L
tp328
Rp329
sI206
g1
(g2
g3
L4953019070L
tp330
Rp331
sI207
g1
(g2
g3
L3531789933L
tp332
Rp333
sI208
g1
(g2
g3
L5923624371L
tp334
Rp335
sI209
g1
(g2
g3
L4257858293L
tp336
Rp337
sI210
g1
(g2
g3
L2778241523L
tp338
Rp339
sI211
g1
(g2
g3
L8652238822L
tp340
Rp341
sI212
g1
(g2
g3
L3507386434L
tp342
Rp343
sI213
g1
(g2
g3
L4485372933L
tp344
Rp345
sI214
g1
(g2
g3
L2986558092L
tp346
Rp347
sI215
g1
(g2
g3
L3674665821L
tp348
Rp349
sI216
g1
(g2
g3
L8339759462L
tp350
Rp351
sI217
g1
(g2
g3
L6990618550L
tp352
Rp353
sI218
g1
(g2
g3
L3889493965L
tp354
Rp355
sI219
g1
(g2
g3
L3866879767L
tp356
Rp357
sI220
g1
(g2
g3
L5032087030L
tp358
Rp359
sI221
g1
(g2
g3
L4467262178L
tp360
Rp361
sI222
g1
(g2
g3
L5952006312L
tp362
Rp363
sI223
g1
(g2
g3
L6796621230L
tp364
Rp365
sI224
g1
(g2
g3
L3223303378L
tp366
Rp367
sI225
g1
(g2
g3
L3706234871L
tp368
Rp369
sI226
g1
(g2
g3
L6928699841L
tp370
Rp371
sI227
I764818980
sI228
g1
(g2
g3
L6822228591L
tp372
Rp373
sI229
g1
(g2
g3
L2945174102L
tp374
Rp375
sI230
g1
(g2
g3
L2807447559L
tp376
Rp377
sI231
g1
(g2
g3
L8659686731L
tp378
Rp379
sI232
g1
(g2
g3
L7249801860L
tp380
Rp381
sI233
g1
(g2
g3
L2867408525L
tp382
Rp383
sI234
g1
(g2
g3
L7249825714L
tp384
Rp385
sI235
g1
(g2
g3
L7818555004L
tp386
Rp387
sI236
g1
(g2
g3
L4968931272L
tp388
Rp389
sI237
g1
(g2
g3
L2919124911L
tp390
Rp391
sI238
g1
(g2
g3
L6263503498L
tp392
Rp393
sI239
I448194073
sI240
g1
(g2
g3
L3604084149L
tp394
Rp395
sI241
g1
(g2
g3
L3769035635L
tp396
Rp397
sI242
g1
(g2
g3
L6067412644L
tp398
Rp399
sI243
g1
(g2
g3
L5700230858L
tp400
Rp401
sI244
g1
(g2
g3
L2775108852L
tp402
Rp403
sI245
I120174598
sI246
g1
(g2
g3
L2270189684L
tp404
Rp405
sI247
g1
(g2
g3
L7204055120L
tp406
Rp407
sI248
g1
(g2
g3
L9211735851L
tp408
Rp409
sI249
I234080853
sI250
g1
(g2
g3
L8049283287L
tp410
Rp411
sI251
g1
(g2
g3
L5625474894L
tp412
Rp413
sI252
I809906719
sI253
g1
(g2
g3
L4965553623L
tp414
Rp415
sI254
g1
(g2
g3
L8638270654L
tp416
Rp417
sI255
g1
(g2
g3
L4672497743L
tp418
Rp419
sI256
g1
(g2
g3
L5652283001L
tp420
Rp421
sI257
g1
(g2
g3
L3711748036L
tp422
Rp423
sI258
g1
(g2
g3
L8607476138L
tp424
Rp425
sI259
g1
(g2
g3
L5655666673L
tp426
Rp427
sI260
g1
(g2
g3
L4986575162L
tp428
Rp429
sI261
g1
(g2
g3
L3712239221L
tp430
Rp431
sI262
g1
(g2
g3
L6308944504L
tp432
Rp433
sI263
g1
(g2
g3
L2364444017L
tp434
Rp435
sI264
I109977392
sI265
g1
(g2
g3
L3991557540L
tp436
Rp437
sI266
g1
(g2
g3
L9734893955L
tp438
Rp439
sI267
g1
(g2
g3
L3483104693L
tp440
Rp441
sI268
g1
(g2
g3
L8361202164L
tp442
Rp443
sI269
g1
(g2
g3
L7794166212L
tp444
Rp445
sI270
g1
(g2
g3
L7545963294L
tp446
Rp447
sI271
g1
(g2
g3
L4018880098L
tp448
Rp449
sI272
I328628832
sI273
g1
(g2
g3
L7753953808L
tp450
Rp451
sI274
g1
(g2
g3
L2709517759L
tp452
Rp453
sI275
g1
(g2
g3
L5292385956L
tp454
Rp455
sI276
g1
(g2
g3
L3062406752L
tp456
Rp457
sI277
g1
(g2
g3
L5946576086L
tp458
Rp459
sI278
g1
(g2
g3
L2479083161L
tp460
Rp461
sI279
g1
(g2
g3
L3952647015L
tp462
Rp463
sI280
g1
(g2
g3
L6318396856L
tp464
Rp465
sI281
g1
(g2
g3
L9264874194L
tp466
Rp467
sI282
g1
(g2
g3
L3310865683L
tp468
Rp469
sI283
I229505167
sI284
g1
(g2
g3
L2157833827L
tp470
Rp471
sI285
I2014712343
sI286
g1
(g2
g3
L4157806696L
tp472
Rp473
sI287
g1
(g2
g3
L7399488734L
tp474
Rp475
sI288
g1
(g2
g3
L4120550773L
tp476
Rp477
sI289
g1
(g2
g3
L9520260207L
tp478
Rp479
sI290
g1
(g2
g3
L3432282623L
tp480
Rp481
sI291
g1
(g2
g3
L12738089805L
tp482
Rp483
sI292
g1
(g2
g3
L4324393772L
tp484
Rp485
sI293
I1369917613
sI294
I310573998
sI295
g1
(g2
g3
L2508590112L
tp486
Rp487
sI296
g1
(g2
g3
L4760647056L
tp488
Rp489
sI297
g1
(g2
g3
L3543892835L
tp490
Rp491
sI298
g1
(g2
g3
L2235104660L
tp492
Rp493
sI299
g1
(g2
g3
L5504101738L
tp494
Rp495
sI300
g1
(g2
g3
L8469754424L
tp496
Rp497
sI301
g1
(g2
g3
L2336205324L
tp498
Rp499
sI302
g1
(g2
g3
L5242576228L
tp500
Rp501
sI303
I228484960
sI304
g1
(g2
g3
L2505455789L
tp502
Rp503
sI305
g1
(g2
g3
L9627572739L
tp504
Rp505
sI306
g1
(g2
g3
L3866906439L
tp506
Rp507
sI307
g1
(g2
g3
L2462046875L
tp508
Rp509
sI308
g1
(g2
g3
L2594502364L
tp510
Rp511
sI309
g1
(g2
g3
L4695661373L
tp512
Rp513
sI310
g1
(g2
g3
L3749269968L
tp514
Rp515
sI311
g1
(g2
g3
L3666784994L
tp516
Rp517
sI312
g1
(g2
g3
L2366532004L
tp518
Rp519
sI313
g1
(g2
g3
L11699050986L
tp520
Rp521
sI314
g1
(g2
g3
L6609694739L
tp522
Rp523
sI315
g1
(g2
g3
L3209853555L
tp524
Rp525
sI316
g1
(g2
g3
L7006386282L
tp526
Rp527
sI317
g1
(g2
g3
L3853827072L
tp528
Rp529
sI318
g1
(g2
g3
L3669424706L
tp530
Rp531
sI319
g1
(g2
g3
L9005074688L
tp532
Rp533
sI320
g1
(g2
g3
L9061105816L
tp534
Rp535
sI321
g1
(g2
g3
L4934832526L
tp536
Rp537
sI322
g1
(g2
g3
L8388419950L
tp538
Rp539
sI323
g1
(g2
g3
L3161651143L
tp540
Rp541
sI324
g1
(g2
g3
L3601194998L
tp542
Rp543
sI325
g1
(g2
g3
L8578140489L
tp544
Rp545
sI326
g1
(g2
g3
L7887222400L
tp546
Rp547
sI327
g1
(g2
g3
L3247261195L
tp548
Rp549
sI328
g1
(g2
g3
L3829877969L
tp550
Rp551
sI329
g1
(g2
g3
L2446669199L
tp552
Rp553
sI330
g1
(g2
g3
L5994073442L
tp554
Rp555
sI331
g1
(g2
g3
L5787208673L
tp556
Rp557
sI332
I132512172
sI333
g1
(g2
g3
L12073516466L
tp558
Rp559
sI334
g1
(g2
g3
L4216484634L
tp560
Rp561
sI335
g1
(g2
g3
L9676660999L
tp562
Rp563
sI336
g1
(g2
g3
L6155063842L
tp564
Rp565
sI337
g1
(g2
g3
L5971861336L
tp566
Rp567
sI338
g1
(g2
g3
L3135466784L
tp568
Rp569
sI339
g1
(g2
g3
L4183448942L
tp570
Rp571
sI340
g1
(g2
g3
L5898280310L
tp572
Rp573
sI341
g1
(g2
g3
L8069763330L
tp574
Rp575
sI342
g1
(g2
g3
L5097182980L
tp576
Rp577
sI343
g1
(g2
g3
L8097908201L
tp578
Rp579
sI344
I181679983
sI345
g1
(g2
g3
L6415752099L
tp580
Rp581
sI346
g1
(g2
g3
L6170773194L
tp582
Rp583
sI347
g1
(g2
g3
L8274893824L
tp584
Rp585
sI348
g1
(g2
g3
L8483580180L
tp586
Rp587
sI349
g1
(g2
g3
L11112851676L
tp588
Rp589
sI350
g1
(g2
g3
L3860590766L
tp590
Rp591
sI351
g1
(g2
g3
L4388743917L
tp592
Rp593
sI352
I218496412
sI353
g1
(g2
g3
L9741426936L
tp594
Rp595
sI354
g1
(g2
g3
L7289023174L
tp596
Rp597
sI355
g1
(g2
g3
L2671451786L
tp598
Rp599
sI356
g1
(g2
g3
L2993869175L
tp600
Rp601
sI357
g1
(g2
g3
L3184524968L
tp602
Rp603
sI358
g1
(g2
g3
L5327970697L
tp604
Rp605
sI359
g1
(g2
g3
L4747874363L
tp606
Rp607
sI360
g1
(g2
g3
L8652238822L
tp608
Rp609
sI361
g1
(g2
g3
L3916266963L
tp610
Rp611
sI362
I284135588
sI363
g1
(g2
g3
L4909272937L
tp612
Rp613
sI364
g1
(g2
g3
L6044151098L
tp614
Rp615
sI365
I383153713
sI366
g1
(g2
g3
L2256335192L
tp616
Rp617
sI367
g1
(g2
g3
L9647023064L
tp618
Rp619
sI368
g1
(g2
g3
L2832839745L
tp620
Rp621
sI369
g1
(g2
g3
L4825046087L
tp622
Rp623
sI370
I164449238
sI371
g1
(g2
g3
L5645686547L
tp624
Rp625
sI372
g1
(g2
g3
L3097912997L
tp626
Rp627
sI373
g1
(g2
g3
L4295747985L
tp628
Rp629
sI374
g1
(g2
g3
L2465550876L
tp630
Rp631
sI375
g1
(g2
g3
L8233778677L
tp632
Rp633
sI376
g1
(g2
g3
L8258515852L
tp634
Rp635
sI377
g1
(g2
g3
L8669788712L
tp636
Rp637
sI378
g1
(g2
g3
L4877276982L
tp638
Rp639
sI379
g1
(g2
g3
L4738292584L
tp640
Rp641
sI380
g1
(g2
g3
L2799686039L
tp642
Rp643
sI381
g1
(g2
g3
L4883933077L
tp644
Rp645
sI382
I4622607
sI383
I380775814
sI384
g1
(g2
g3
L2716386389L
tp646
Rp647
sI385
I1374457418
sI386
g1
(g2
g3
L10043297414L
tp648
Rp649
sI387
g1
(g2
g3
L4627683326L
tp650
Rp651
sI388
I2073042532
sI389
g1
(g2
g3
L8494627824L
tp652
Rp653
sI390
g1
(g2
g3
L4787401898L
tp654
Rp655
sI391
g1
(g2
g3
L4886590983L
tp656
Rp657
sI392
g1
(g2
g3
L9723495993L
tp658
Rp659
sI393
I256704158
sI394
I398669227
sI395
g1
(g2
g3
L2903775019L
tp660
Rp661
sI396
g1
(g2
g3
L4386953781L
tp662
Rp663
sI397
g1
(g2
g3
L3574000355L
tp664
Rp665
sI398
g1
(g2
g3
L11778925054L
tp666
Rp667
sI399
g1
(g2
g3
L8552544187L
tp668
Rp669
sI400
g1
(g2
g3
L2604338963L
tp670
Rp671
sI401
I399403006
sI402
g1
(g2
g3
L2351394276L
tp672
Rp673
sI403
g1
(g2
g3
L4679629752L
tp674
Rp675
sI404
I821323010
sI405
g1
(g2
g3
L2706146406L
tp676
Rp677
sI406
I102283790
sI407
g1
(g2
g3
L11184170806L
tp678
Rp679
sI408
g1
(g2
g3
L4736391100L
tp680
Rp681
sI409
g1
(g2
g3
L5231837665L
tp682
Rp683
sI410
g1
(g2
g3
L9301515303L
tp684
Rp685
sI411
g1
(g2
g3
L2536436680L
tp686
Rp687
sI412
g1
(g2
g3
L11241158684L
tp688
Rp689
sI413
g1
(g2
g3
L5723205570L
tp690
Rp691
sI414
g1
(g2
g3
L6346430731L
tp692
Rp693
sI415
g1
(g2
g3
L3172168331L
tp694
Rp695
sI416
g1
(g2
g3
L7360311258L
tp696
Rp697
sI417
I1806088042
sI418
g1
(g2
g3
L5384266950L
tp698
Rp699
sI419
I1466536724
sI420
I90917154
sI421
g1
(g2
g3
L8059730492L
tp700
Rp701
sI422
g1
(g2
g3
L5095488583L
tp702
Rp703
sI423
g1
(g2
g3
L2270850811L
tp704
Rp705
sI424
g1
(g2
g3
L4509264911L
tp706
Rp707
sI425
g1
(g2
g3
L6778240905L
tp708
Rp709
sI426
g1
(g2
g3
L5120593765L
tp710
Rp711
sI427
g1
(g2
g3
L9072867267L
tp712
Rp713
sI428
I496408987
sI429
I28938096
sI430
g1
(g2
g3
L4410084563L
tp714
Rp715
sI431
g1
(g2
g3
L5475790698L
tp716
Rp717
sI432
I126913429
sI433
g1
(g2
g3
L9501214692L
tp718
Rp719
sI434
g1
(g2
g3
L2885291245L
tp720
Rp721
sI435
g1
(g2
g3
L4926665996L
tp722
Rp723
sI436
g1
(g2
g3
L2178781148L
tp724
Rp725
sI437
g1
(g2
g3
L2675831795L
tp726
Rp727
sI438
g1
(g2
g3
L9209703272L
tp728
Rp729
sI439
g1
(g2
g3
L2582578056L
tp730
Rp731
sI440
g1
(g2
g3
L12858393765L
tp732
Rp733
sI441
g1
(g2
g3
L2800047645L
tp734
Rp735
sI442
g1
(g2
g3
L5537239408L
tp736
Rp737
sI443
g1
(g2
g3
L3322759739L
tp738
Rp739
sI444
g1
(g2
g3
L8108228263L
tp740
Rp741
sI445
g1
(g2
g3
L10622226053L
tp742
Rp743
sI446
g1
(g2
g3
L8869237192L
tp744
Rp745
sI447
g1
(g2
g3
L6033583071L
tp746
Rp747
sI448
g1
(g2
g3
L3664504229L
tp748
Rp749
sI449
g1
(g2
g3
L3106189358L
tp750
Rp751
sI450
g1
(g2
g3
L4601613931L
tp752
Rp753
sI451
g1
(g2
g3
L3273621840L
tp754
Rp755
sI452
g1
(g2
g3
L5642864654L
tp756
Rp757
sI453
g1
(g2
g3
L3418609257L
tp758
Rp759
sI454
g1
(g2
g3
L7670886388L
tp760
Rp761
sI455
I534275512
sI456
g1
(g2
g3
L2236811707L
tp762
Rp763
sI457
g1
(g2
g3
L3811613090L
tp764
Rp765
sI458
I211653674
sI459
g1
(g2
g3
L7705292900L
tp766
Rp767
sI460
g1
(g2
g3
L3712101978L
tp768
Rp769
sI461
g1
(g2
g3
L4560485216L
tp770
Rp771
sI462
g1
(g2
g3
L7626412666L
tp772
Rp773
sI463
g1
(g2
g3
L3172208966L
tp774
Rp775
sI464
I2144220717
sI465
g1
(g2
g3
L4679627863L
tp776
Rp777
sI466
I884634205
sI467
I189419508
sI468
g1
(g2
g3
L8326062961L
tp778
Rp779
sI469
g1
(g2
g3
L4785320648L
tp780
Rp781
sI470
I396609838
sI471
g1
(g2
g3
L7439243164L
tp782
Rp783
sI472
I1928387461
sI473
g1
(g2
g3
L11015419785L
tp784
Rp785
sI474
g1
(g2
g3
L2636129464L
tp786
Rp787
sI475
I223169394
sI476
g1
(g2
g3
L2705330341L
tp788
Rp789
sI477
g1
(g2
g3
L5022461869L
tp790
Rp791
sI478
g1
(g2
g3
L5029916090L
tp792
Rp793
sI479
g1
(g2
g3
L3599856011L
tp794
Rp795
sI480
I96628336
sI481
g1
(g2
g3
L3750286513L
tp796
Rp797
sI482
g1
(g2
g3
L7013213467L
tp798
Rp799
sI483
g1
(g2
g3
L3607115802L
tp800
Rp801
sI484
g1
(g2
g3
L3967888383L
tp802
Rp803
sI485
g1
(g2
g3
L5609717102L
tp804
Rp805
sI486
g1
(g2
g3
L5706589872L
tp806
Rp807
sI487
I151776600
sI488
I270364530
sI489
g1
(g2
g3
L2508849278L
tp808
Rp809
sI490
g1
(g2
g3
L9316829427L
tp810
Rp811
sI491
g1
(g2
g3
L3861157473L
tp812
Rp813
sI492
g1
(g2
g3
L4380688510L
tp814
Rp815
sI493
I458079010
sI494
g1
(g2
g3
L8414295217L
tp816
Rp817
sI495
I399734704
sI496
g1
(g2
g3
L3243485166L
tp818
Rp819
sI497
g1
(g2
g3
L8191116652L
tp820
Rp821
sI498
g1
(g2
g3
L8327478399L
tp822
Rp823
sI499
g1
(g2
g3
L10041568665L
tp824
Rp825
sI500
g1
(g2
g3
L9643817891L
tp826
Rp827
sI501
g1
(g2
g3
L3591700478L
tp828
Rp829
sI502
g1
(g2
g3
L2344355580L
tp830
Rp831
sI503
I305375490
sI504
I1015185054
sI505
g1
(g2
g3
L4408415939L
tp832
Rp833
sI506
I138195001
sI507
g1
(g2
g3
L4293706421L
tp834
Rp835
sI508
g1
(g2
g3
L2582911492L
tp836
Rp837
sI509
g1
(g2
g3
L5280679269L
tp838
Rp839
sI510
g1
(g2
g3
L3715088905L
tp840
Rp841
sI511
g1
(g2
g3
L3637819434L
tp842
Rp843
sI512
g1
(g2
g3
L4605398871L
tp844
Rp845
sI513
I186438354
sI514
g1
(g2
g3
L2366079569L
tp846
Rp847
sI515
I286207421
sI516
g1
(g2
g3
L8589447445L
tp848
Rp849
sI517
g1
(g2
g3
L4303841732L
tp850
Rp851
sI518
g1
(g2
g3
L5265275667L
tp852
Rp853
sI519
g1
(g2
g3
L8663983614L
tp854
Rp855
sI520
I1049921616
sI521
g1
(g2
g3
L3700081759L
tp856
Rp857
sI522
g1
(g2
g3
L4538918812L
tp858
Rp859
sI523
g1
(g2
g3
L4536427493L
tp860
Rp861
sI524
g1
(g2
g3
L9741426936L
tp862
Rp863
sI525
g1
(g2
g3
L3818633418L
tp864
Rp865
sI526
g1
(g2
g3
L10924169113L
tp866
Rp867
sI527
g1
(g2
g3
L5474875411L
tp868
Rp869
sI528
g1
(g2
g3
L5436129753L
tp870
Rp871
sI529
g1
(g2
g3
L6289094362L
tp872
Rp873
sI530
g1
(g2
g3
L7478893590L
tp874
Rp875
sI531
g1
(g2
g3
L8181028979L
tp876
Rp877
sI532
I443731131
sI533
I45447623
sI534
g1
(g2
g3
L9470123670L
tp878
Rp879
sI535
g1
(g2
g3
L2447357117L
tp880
Rp881
sI536
g1
(g2
g3
L2790027417L
tp882
Rp883
sI537
g1
(g2
g3
L4342792720L
tp884
Rp885
sI538
I557714897
sI539
g1
(g2
g3
L5395039226L
tp886
Rp887
sI540
g1
(g2
g3
L4825046087L
tp888
Rp889
sI541
g1
(g2
g3
L6070040623L
tp890
Rp891
sI542
g1
(g2
g3
L4668031570L
tp892
Rp893
sI543
g1
(g2
g3
L2150651662L
tp894
Rp895
sI544
g1
(g2
g3
L4728383827L
tp896
Rp897
sI545
g1
(g2
g3
L10849307074L
tp898
Rp899
sI546
I1394748367
sI547
g1
(g2
g3
L6352849292L
tp900
Rp901
sI548
g1
(g2
g3
L8235517106L
tp902
Rp903
sI549
g1
(g2
g3
L6901911145L
tp904
Rp905
sI550
I1044074156
sI551
g1
(g2
g3
L3860383612L
tp906
Rp907
sI552
g1
(g2
g3
L3166884093L
tp908
Rp909
sI553
g1
(g2
g3
L8230468485L
tp910
Rp911
sI554
g1
(g2
g3
L6129936188L
tp912
Rp913
sI555
g1
(g2
g3
L4447509148L
tp914
Rp915
sI556
g1
(g2
g3
L3952618636L
tp916
Rp917
sI557
g1
(g2
g3
L5084621346L
tp918
Rp919
sI558
g1
(g2
g3
L5484961587L
tp920
Rp921
sI559
g1
(g2
g3
L3665435621L
tp922
Rp923
sI560
g1
(g2
g3
L6182354085L
tp924
Rp925
sI561
I2039197008
sI562
g1
(g2
g3
L12738089805L
tp926
Rp927
sI563
g1
(g2
g3
L4193169111L
tp928
Rp929
sI564
g1
(g2
g3
L3406809034L
tp930
Rp931
sI565
g1
(g2
g3
L9320154637L
tp932
Rp933
sI566
g1
(g2
g3
L4040086934L
tp934
Rp935
sI567
g1
(g2
g3
L5069767435L
tp936
Rp937
sI568
g1
(g2
g3
L2268829962L
tp938
Rp939
sI569
I459464944
sI570
g1
(g2
g3
L2498161805L
tp940
Rp941
sI571
g1
(g2
g3
L5443748306L
tp942
Rp943
sI572
g1
(g2
g3
L2487032595L
tp944
Rp945
sI573
g1
(g2
g3
L4458876989L
tp946
Rp947
sI574
I1323841787
sI575
g1
(g2
g3
L8160824891L
tp948
Rp949
sI576
g1
(g2
g3
L8633073291L
tp950
Rp951
sI577
g1
(g2
g3
L4404458346L
tp952
Rp953
sI578
g1
(g2
g3
L3556578563L
tp954
Rp955
sI579
I2109906527
sI580
g1
(g2
g3
L3601194998L
tp956
Rp957
sI581
g1
(g2
g3
L3821080942L
tp958
Rp959
sI582
g1
(g2
g3
L5253144111L
tp960
Rp961
sI583
g1
(g2
g3
L7770406318L
tp962
Rp963
sI584
g1
(g2
g3
L8131822470L
tp964
Rp965
sI585
g1
(g2
g3
L3713546458L
tp966
Rp967
sI586
I528533231
sI587
g1
(g2
g3
L3992695231L
tp968
Rp969
sI588
g1
(g2
g3
L4123819137L
tp970
Rp971
sI589
I1421810679
sI590
g1
(g2
g3
L3834706102L
tp972
Rp973
sI591
g1
(g2
g3
L4355582744L
tp974
Rp975
sI592
I68551879
sI593
I1283518500
sI594
g1
(g2
g3
L2467322013L
tp976
Rp977
sI595
g1
(g2
g3
L7769642712L
tp978
Rp979
sI596
g1
(g2
g3
L8064420241L
tp980
Rp981
sI597
g1
(g2
g3
L2630651738L
tp982
Rp983
sI598
g1
(g2
g3
L3356524859L
tp984
Rp985
sI599
g1
(g2
g3
L2819560157L
tp986
Rp987
sI600
g1
(g2
g3
L8483752506L
tp988
Rp989
sI601
g1
(g2
g3
L6158014339L
tp990
Rp991
sI602
I23177522
sI603
I954189935
sI604
g1
(g2
g3
L4148559376L
tp992
Rp993
sI605
g1
(g2
g3
L3816366307L
tp994
Rp995
sI606
g1
(g2
g3
L5170910083L
tp996
Rp997
sI607
g1
(g2
g3
L9017910996L
tp998
Rp999
sI608
I24664840
sI609
g1
(g2
g3
L7811696028L
tp1000
Rp1001
sI610
g1
(g2
g3
L2504705082L
tp1002
Rp1003
sI611
g1
(g2
g3
L9312113317L
tp1004
Rp1005
sI612
I412540207
sI613
g1
(g2
g3
L6270929545L
tp1006
Rp1007
sI614
g1
(g2
g3
L3871589782L
tp1008
Rp1009
sI615
g1
(g2
g3
L8253716994L
tp1010
Rp1011
sI616
g1
(g2
g3
L2159550379L
tp1012
Rp1013
sI617
I1425660818
sI618
g1
(g2
g3
L3145871966L
tp1014
Rp1015
sI619
g1
(g2
g3
L5500648157L
tp1016
Rp1017
sI620
g1
(g2
g3
L5853885132L
tp1018
Rp1019
sI621
g1
(g2
g3
L3665109089L
tp1020
Rp1021
sI622
g1
(g2
g3
L5209725680L
tp1022
Rp1023
sI623
g1
(g2
g3
L8539026379L
tp1024
Rp1025
sI624
g1
(g2
g3
L4848748061L
tp1026
Rp1027
sI625
g1
(g2
g3
L5422531798L
tp1028
Rp1029
sI626
g1
(g2
g3
L4544666367L
tp1030
Rp1031
sI627
I133119444
sI628
g1
(g2
g3
L6511682523L
tp1032
Rp1033
sI629
g1
(g2
g3
L4828509253L
tp1034
Rp1035
sI630
g1
(g2
g3
L4244552027L
tp1036
Rp1037
sI631
g1
(g2
g3
L3607115802L
tp1038
Rp1039
sI632
g1
(g2
g3
L7852571420L
tp1040
Rp1041
sI633
I5219130
sI634
g1
(g2
g3
L8698219390L
tp1042
Rp1043
sI635
g1
(g2
g3
L4009996006L
tp1044
Rp1045
sI636
g1
(g2
g3
L5614107623L
tp1046
Rp1047
sI637
g1
(g2
g3
L5149216974L
tp1048
Rp1049
sI638
I463143406
sI639
g1
(g2
g3
L10360579696L
tp1050
Rp1051
sI640
g1
(g2
g3
L2791397785L
tp1052
Rp1053
sI641
g1
(g2
g3
L9624578844L
tp1054
Rp1055
sI642
g1
(g2
g3
L8292897989L
tp1056
Rp1057
sI643
I363088475
sI644
g1
(g2
g3
L6159931272L
tp1058
Rp1059
sI645
g1
(g2
g3
L3857967316L
tp1060
Rp1061
sI646
I1287832010
sI647
I388572475
sI648
g1
(g2
g3
L6640768035L
tp1062
Rp1063
sI649
g1
(g2
g3
L5191704306L
tp1064
Rp1065
sI650
g1
(g2
g3
L2288382266L
tp1066
Rp1067
sI651
g1
(g2
g3
L6796057716L
tp1068
Rp1069
sI652
I282794922
sI653
g1
(g2
g3
L7502999618L
tp1070
Rp1071
sI654
g1
(g2
g3
L9396129910L
tp1072
Rp1073
sI655
I2047625783
sI656
g1
(g2
g3
L5034091715L
tp1074
Rp1075
sI657
g1
(g2
g3
L7160692206L
tp1076
Rp1077
sI658
I588552032
sI659
g1
(g2
g3
L6925204791L
tp1078
Rp1079
sI660
g1
(g2
g3
L8551574988L
tp1080
Rp1081
sI661
g1
(g2
g3
L6139590531L
tp1082
Rp1083
sI662
g1
(g2
g3
L8055739423L
tp1084
Rp1085
sI663
g1
(g2
g3
L6811894230L
tp1086
Rp1087
sI664
g1
(g2
g3
L6143198781L
tp1088
Rp1089
sI665
g1
(g2
g3
L3065043424L
tp1090
Rp1091
sI666
I1193282226
sI667
I998031679
sI668
g1
(g2
g3
L2151748576L
tp1092
Rp1093
sI669
g1
(g2
g3
L4005404568L
tp1094
Rp1095
sI670
I535410220
sI671
g1
(g2
g3
L2525126832L
tp1096
Rp1097
sI672
I1507438588
sI673
I300186737
sI674
g1
(g2
g3
L6934115427L
tp1098
Rp1099
sI675
I342788933
sI676
g1
(g2
g3
L2924529054L
tp1100
Rp1101
sI677
g1
(g2
g3
L5846721418L
tp1102
Rp1103
sI678
g1
(g2
g3
L3720383956L
tp1104
Rp1105
sI679
g1
(g2
g3
L7560193060L
tp1106
Rp1107
sI680
g1
(g2
g3
L2392139318L
tp1108
Rp1109
sI681
g1
(g2
g3
L11660259034L
tp1110
Rp1111
sI682
g1
(g2
g3
L6919870883L
tp1112
Rp1113
sI683
g1
(g2
g3
L6497202921L
tp1114
Rp1115
sI684
g1
(g2
g3
L4262121927L
tp1116
Rp1117
sI685
g1
(g2
g3
L4531541157L
tp1118
Rp1119
sI686
g1
(g2
g3
L6068490524L
tp1120
Rp1121
sI687
g1
(g2
g3
L8589447445L
tp1122
Rp1123
sI688
I157234178
sI689
g1
(g2
g3
L2531497427L
tp1124
Rp1125
sI690
g1
(g2
g3
L3691313284L
tp1126
Rp1127
sI691
g1
(g2
g3
L11748707685L
tp1128
Rp1129
sI692
g1
(g2
g3
L3316008005L
tp1130
Rp1131
sI693
g1
(g2
g3
L3499030590L
tp1132
Rp1133
sI694
g1
(g2
g3
L9484872058L
tp1134
Rp1135
sI695
g1
(g2
g3
L8584141894L
tp1136
Rp1137
sI696
g1
(g2
g3
L11112851676L
tp1138
Rp1139
sI697
g1
(g2
g3
L8540841429L
tp1140
Rp1141
sI698
g1
(g2
g3
L4311844877L
tp1142
Rp1143
sI699
g1
(g2
g3
L5316954322L
tp1144
Rp1145
sI700
g1
(g2
g3
L8111955732L
tp1146
Rp1147
sI701
g1
(g2
g3
L7289023174L
tp1148
Rp1149
sI702
I1130572576
sI703
I250729232
sI704
g1
(g2
g3
L3009151108L
tp1150
Rp1151
sI705
g1
(g2
g3
L5581797913L
tp1152
Rp1153
sI706
I93203198
sI707
g1
(g2
g3
L4251777191L
tp1154
Rp1155
sI708
g1
(g2
g3
L8367667857L
tp1156
Rp1157
sI709
g1
(g2
g3
L8313004680L
tp1158
Rp1159
sI710
g1
(g2
g3
L2260283869L
tp1160
Rp1161
sI711
g1
(g2
g3
L9334562869L
tp1162
Rp1163
sI712
g1
(g2
g3
L8082809184L
tp1164
Rp1165
sI713
g1
(g2
g3
L8271407789L
tp1166
Rp1167
sI714
I266943614
sI715
g1
(g2
g3
L6373995571L
tp1168
Rp1169
sI716
g1
(g2
g3
L7730622570L
tp1170
Rp1171
sI717
g1
(g2
g3
L3209038866L
tp1172
Rp1173
sI718
g1
(g2
g3
L7973088474L
tp1174
Rp1175
sI719
I1428310227
sI720
g1
(g2
g3
L10469094276L
tp1176
Rp1177
sI721
g1
(g2
g3
L10543498845L
tp1178
Rp1179
sI722
g1
(g2
g3
L2698194963L
tp1180
Rp1181
sI723
g1
(g2
g3
L2187366267L
tp1182
Rp1183
sI724
g1
(g2
g3
L2936566727L
tp1184
Rp1185
sI725
I232170235
sI726
I482866968
sI727
g1
(g2
g3
L6803910456L
tp1186
Rp1187
sI728
g1
(g2
g3
L2777672726L
tp1188
Rp1189
sI729
g1
(g2
g3
L11424783615L
tp1190
Rp1191
sI730
g1
(g2
g3
L6069506236L
tp1192
Rp1193
sI731
I190023593
sI732
I424584916
sI733
g1
(g2
g3
L5665257981L
tp1194
Rp1195
sI734
g1
(g2
g3
L3309121215L
tp1196
Rp1197
sI735
g1
(g2
g3
L9465766798L
tp1198
Rp1199
sI736
g1
(g2
g3
L8274835538L
tp1200
Rp1201
sI737
I272228601
sI738
g1
(g2
g3
L2958521898L
tp1202
Rp1203
sI739
g1
(g2
g3
L11652168615L
tp1204
Rp1205
sI740
I2125064519
sI741
g1
(g2
g3
L2823608235L
tp1206
Rp1207
sI742
g1
(g2
g3
L6831752962L
tp1208
Rp1209
sI743
g1
(g2
g3
L6790201476L
tp1210
Rp1211
sI744
g1
(g2
g3
L6905552070L
tp1212
Rp1213
sI745
g1
(g2
g3
L13823791004L
tp1214
Rp1215
sI746
g1
(g2
g3
L3933549281L
tp1216
Rp1217
sI747
g1
(g2
g3
L3711012694L
tp1218
Rp1219
sI748
g1
(g2
g3
L8446440119L
tp1220
Rp1221
sI749
g1
(g2
g3
L4889543167L
tp1222
Rp1223
sI750
g1
(g2
g3
L3591544233L
tp1224
Rp1225
sI751
g1
(g2
g3
L2166963035L
tp1226
Rp1227
sI752
g1
(g2
g3
L3871682667L
tp1228
Rp1229
sI753
I327836082
sI754
g1
(g2
g3
L11761387706L
tp1230
Rp1231
sI755
g1
(g2
g3
L7280013902L
tp1232
Rp1233
sI756
I152500714
sI757
g1
(g2
g3
L6159352126L
tp1234
Rp1235
sI758
g1
(g2
g3
L3911720168L
tp1236
Rp1237
sI759
g1
(g2
g3
L5249278271L
tp1238
Rp1239
sI760
g1
(g2
g3
L4891932768L
tp1240
Rp1241
sI761
g1
(g2
g3
L4447509148L
tp1242
Rp1243
sI762
g1
(g2
g3
L5325295004L
tp1244
Rp1245
sI763
g1
(g2
g3
L11911272993L
tp1246
Rp1247
sI764
g1
(g2
g3
L4386953781L
tp1248
Rp1249
sI765
g1
(g2
g3
L7181093120L
tp1250
Rp1251
sI766
g1
(g2
g3
L7891771666L
tp1252
Rp1253
sI767
I1404487101
sI768
g1
(g2
g3
L6118262485L
tp1254
Rp1255
sI769
g1
(g2
g3
L4521330540L
tp1256
Rp1257
sI770
g1
(g2
g3
L8380461871L
tp1258
Rp1259
sI771
g1
(g2
g3
L7985715065L
tp1260
Rp1261
sI772
g1
(g2
g3
L6873937918L
tp1262
Rp1263
sI773
g1
(g2
g3
L7863652244L
tp1264
Rp1265
sI774
g1
(g2
g3
L6821852740L
tp1266
Rp1267
sI775
I440848104
sI776
g1
(g2
g3
L5996872219L
tp1268
Rp1269
sI777
I89857651
sI778
I337374783
sI779
g1
(g2
g3
L2353445587L
tp1270
Rp1271
sI780
g1
(g2
g3
L2209656704L
tp1272
Rp1273
sI781
g1
(g2
g3
L7058991267L
tp1274
Rp1275
sI782
g1
(g2
g3
L9627572739L
tp1276
Rp1277
sI783
g1
(g2
g3
L5723205570L
tp1278
Rp1279
sI784
I1377131267
sI785
g1
(g2
g3
L6619751363L
tp1280
Rp1281
sI786
g1
(g2
g3
L2913037584L
tp1282
Rp1283
sI787
g1
(g2
g3
L7555953216L
tp1284
Rp1285
sI788
g1
(g2
g3
L4324737147L
tp1286
Rp1287
sI789
I1466536724
sI790
g1
(g2
g3
L10823868804L
tp1288
Rp1289
sI791
g1
(g2
g3
L8059730492L
tp1290
Rp1291
sI792
g1
(g2
g3
L5564427268L
tp1292
Rp1293
sI793
g1
(g2
g3
L6502242099L
tp1294
Rp1295
sI794
g1
(g2
g3
L13439008413L
tp1296
Rp1297
sI795
g1
(g2
g3
L6734585701L
tp1298
Rp1299
sI796
g1
(g2
g3
L2684159846L
tp1300
Rp1301
sI797
g1
(g2
g3
L6352872107L
tp1302
Rp1303
sI798
g1
(g2
g3
L7795121078L
tp1304
Rp1305
sI799
g1
(g2
g3
L5047347692L
tp1306
Rp1307
sI800
g1
(g2
g3
L5110393638L
tp1308
Rp1309
sI801
g1
(g2
g3
L4511296681L
tp1310
Rp1311
sI802
I89823964
sI803
g1
(g2
g3
L4427249094L
tp1312
Rp1313
sI804
g1
(g2
g3
L3922586716L
tp1314
Rp1315
sI805
g1
(g2
g3
L12706351354L
tp1316
Rp1317
sI806
g1
(g2
g3
L8503599583L
tp1318
Rp1319
sI807
g1
(g2
g3
L7625992500L
tp1320
Rp1321
sI808
g1
(g2
g3
L4183448942L
tp1322
Rp1323
sI809
I544049927
sI810
g1
(g2
g3
L3078777014L
tp1324
Rp1325
sI811
g1
(g2
g3
L3840035194L
tp1326
Rp1327
sI812
g1
(g2
g3
L5099672592L
tp1328
Rp1329
sI813
g1
(g2
g3
L2203969565L
tp1330
Rp1331
sI814
g1
(g2
g3
L4972251274L
tp1332
Rp1333
sI815
g1
(g2
g3
L5238390103L
tp1334
Rp1335
sI816
g1
(g2
g3
L4012372748L
tp1336
Rp1337
sI817
g1
(g2
g3
L5162581365L
tp1338
Rp1339
sI818
g1
(g2
g3
L2226708310L
tp1340
Rp1341
sI819
I20460258
sI820
g1
(g2
g3
L4516412193L
tp1342
Rp1343
sI821
g1
(g2
g3
L5391141891L
tp1344
Rp1345
sI822
g1
(g2
g3
L3378585817L
tp1346
Rp1347
sI823
g1
(g2
g3
L2365662619L
tp1348
Rp1349
sI824
g1
(g2
g3
L3417383643L
tp1350
Rp1351
sI825
g1
(g2
g3
L8318603280L
tp1352
Rp1353
sI826
g1
(g2
g3
L4313326523L
tp1354
Rp1355
sI827
g1
(g2
g3
L3871525272L
tp1356
Rp1357
sI828
g1
(g2
g3
L5891165419L
tp1358
Rp1359
sI829
g1
(g2
g3
L2675831795L
tp1360
Rp1361
sI830
I1354857408
sI831
g1
(g2
g3
L4204921851L
tp1362
Rp1363
sI832
g1
(g2
g3
L5124070269L
tp1364
Rp1365
sI833
g1
(g2
g3
L3824333435L
tp1366
Rp1367
sI834
g1
(g2
g3
L12858393765L
tp1368
Rp1369
sI835
g1
(g2
g3
L5014276786L
tp1370
Rp1371
sI836
g1
(g2
g3
L3373298872L
tp1372
Rp1373
sI837
g1
(g2
g3
L7098274517L
tp1374
Rp1375
sI838
g1
(g2
g3
L9450730272L
tp1376
Rp1377
sI839
g1
(g2
g3
L6170658842L
tp1378
Rp1379
sI840
g1
(g2
g3
L6853398828L
tp1380
Rp1381
sI841
g1
(g2
g3
L10296637685L
tp1382
Rp1383
sI842
g1
(g2
g3
L2289041021L
tp1384
Rp1385
sI843
g1
(g2
g3
L5688668672L
tp1386
Rp1387
sI844
g1
(g2
g3
L2174753769L
tp1388
Rp1389
sI845
g1
(g2
g3
L6933203481L
tp1390
Rp1391
sI846
g1
(g2
g3
L4931781970L
tp1392
Rp1393
sI847
I2009012999
sI848
g1
(g2
g3
L3936697938L
tp1394
Rp1395
sI849
I408322210
sI850
g1
(g2
g3
L5173879514L
tp1396
Rp1397
sI851
g1
(g2
g3
L9253646781L
tp1398
Rp1399
sI852
g1
(g2
g3
L7185756119L
tp1400
Rp1401
sI853
g1
(g2
g3
L5486278354L
tp1402
Rp1403
sI854
g1
(g2
g3
L6200440829L
tp1404
Rp1405
sI855
g1
(g2
g3
L8101228441L
tp1406
Rp1407
sI856
g1
(g2
g3
L5200094734L
tp1408
Rp1409
sI857
g1
(g2
g3
L5099847760L
tp1410
Rp1411
sI858
g1
(g2
g3
L6270776348L
tp1412
Rp1413
sI859
I1010667068
sI860
g1
(g2
g3
L8236058714L
tp1414
Rp1415
sI861
I1509370220
sI862
I319432800
sI863
g1
(g2
g3
L8645255256L
tp1416
Rp1417
sI864
g1
(g2
g3
L2682533892L
tp1418
Rp1419
sI865
I1444753204
sI866
g1
(g2
g3
L4543042757L
tp1420
Rp1421
sI867
g1
(g2
g3
L5891458100L
tp1422
Rp1423
sI868
g1
(g2
g3
L3618904743L
tp1424
Rp1425
sI869
I1197919480
sI870
g1
(g2
g3
L8200964108L
tp1426
Rp1427
sI871
I396426279
sI872
I869322094
sI873
I221977175
sI874
I1076697636
sI875
g1
(g2
g3
L3189706489L
tp1428
Rp1429
sI876
g1
(g2
g3
L5519215401L
tp1430
Rp1431
sI877
I1049921616
sI878
g1
(g2
g3
L5846609174L
tp1432
Rp1433
sI879
g1
(g2
g3
L5511591826L
tp1434
Rp1435
sI880
g1
(g2
g3
L7227379600L
tp1436
Rp1437
sI881
g1
(g2
g3
L4504277127L
tp1438
Rp1439
sI882
g1
(g2
g3
L3674595737L
tp1440
Rp1441
sI883
g1
(g2
g3
L4792718401L
tp1442
Rp1443
sI884
g1
(g2
g3
L2982085214L
tp1444
Rp1445
sI885
g1
(g2
g3
L2679064600L
tp1446
Rp1447
sI886
g1
(g2
g3
L9183915650L
tp1448
Rp1449
sI887
g1
(g2
g3
L2569661699L
tp1450
Rp1451
sI888
g1
(g2
g3
L6133622096L
tp1452
Rp1453
sI889
g1
(g2
g3
L7478471700L
tp1454
Rp1455
sI890
g1
(g2
g3
L5642883884L
tp1456
Rp1457
sI891
g1
(g2
g3
L2643824068L
tp1458
Rp1459
sI892
g1
(g2
g3
L5081487659L
tp1460
Rp1461
sI893
g1
(g2
g3
L7256318212L
tp1462
Rp1463
sI894
g1
(g2
g3
L4181119892L
tp1464
Rp1465
sI895
g1
(g2
g3
L3818633418L
tp1466
Rp1467
sI896
g1
(g2
g3
L5316954322L
tp1468
Rp1469
sI897
I1321424199
sI898
g1
(g2
g3
L10924169113L
tp1470
Rp1471
sI899
g1
(g2
g3
L5072175944L
tp1472
Rp1473
sI900
g1
(g2
g3
L2712162520L
tp1474
Rp1475
sI901
I548157828
sI902
g1
(g2
g3
L11297855326L
tp1476
Rp1477
sI903
g1
(g2
g3
L6783436347L
tp1478
Rp1479
sI904
I175640330
sI905
I93203198
sI906
g1
(g2
g3
L9132123438L
tp1480
Rp1481
sI907
g1
(g2
g3
L5613103057L
tp1482
Rp1483
sI908
g1
(g2
g3
L7776127582L
tp1484
Rp1485
sI909
g1
(g2
g3
L8313004680L
tp1486
Rp1487
sI910
g1
(g2
g3
L8279192108L
tp1488
Rp1489
sI911
g1
(g2
g3
L5294324392L
tp1490
Rp1491
sI912
g1
(g2
g3
L8459830522L
tp1492
Rp1493
sI913
g1
(g2
g3
L3334002348L
tp1494
Rp1495
sI914
I162998265
sI915
g1
(g2
g3
L8414359797L
tp1496
Rp1497
sI916
g1
(g2
g3
L8467339731L
tp1498
Rp1499
sI917
g1
(g2
g3
L4523515621L
tp1500
Rp1501
sI918
g1
(g2
g3
L3355192096L
tp1502
Rp1503
sI919
g1
(g2
g3
L3431489148L
tp1504
Rp1505
sI920
g1
(g2
g3
L7226544124L
tp1506
Rp1507
sI921
g1
(g2
g3
L3548990884L
tp1508
Rp1509
sI922
g1
(g2
g3
L4642020388L
tp1510
Rp1511
sI923
g1
(g2
g3
L3735477247L
tp1512
Rp1513
sI924
g1
(g2
g3
L6079804766L
tp1514
Rp1515
sI925
g1
(g2
g3
L5014045667L
tp1516
Rp1517
sI926
I571231120
sI927
g1
(g2
g3
L3660072934L
tp1518
Rp1519
sI928
g1
(g2
g3
L2740181738L
tp1520
Rp1521
sI929
g1
(g2
g3
L4134663298L
tp1522
Rp1523
sI930
g1
(g2
g3
L3317838394L
tp1524
Rp1525
sI931
g1
(g2
g3
L6990618550L
tp1526
Rp1527
sI932
g1
(g2
g3
L6209375962L
tp1528
Rp1529
sI933
I897056350
sI934
I130717297
sI935
g1
(g2
g3
L2620954056L
tp1530
Rp1531
sI936
g1
(g2
g3
L5762507455L
tp1532
Rp1533
sI937
g1
(g2
g3
L5530655106L
tp1534
Rp1535
sI938
g1
(g2
g3
L7671939408L
tp1536
Rp1537
sI939
g1
(g2
g3
L2790027417L
tp1538
Rp1539
sI940
g1
(g2
g3
L6155194333L
tp1540
Rp1541
sI941
g1
(g2
g3
L8702541847L
tp1542
Rp1543
sI942
g1
(g2
g3
L3571385746L
tp1544
Rp1545
sI943
g1
(g2
g3
L9160164557L
tp1546
Rp1547
sI944
g1
(g2
g3
L7414396080L
tp1548
Rp1549
sI945
g1
(g2
g3
L5733908752L
tp1550
Rp1551
sI946
g1
(g2
g3
L6254969317L
tp1552
Rp1553
sI947
g1
(g2
g3
L9169836636L
tp1554
Rp1555
sI948
g1
(g2
g3
L2873230160L
tp1556
Rp1557
sI949
I305485937
sI950
g1
(g2
g3
L2452575802L
tp1558
Rp1559
sI951
g1
(g2
g3
L2431640420L
tp1560
Rp1561
sI952
g1
(g2
g3
L9607113137L
tp1562
Rp1563
sI953
g1
(g2
g3
L3337750981L
tp1564
Rp1565
sI954
g1
(g2
g3
L3599500268L
tp1566
Rp1567
sI955
I1013908735
sI956
g1
(g2
g3
L3182197241L
tp1568
Rp1569
sI957
g1
(g2
g3
L5977779955L
tp1570
Rp1571
sI958
I352667030
sI959
g1
(g2
g3
L8895947540L
tp1572
Rp1573
sI960
I435667877
sI961
g1
(g2
g3
L6923757115L
tp1574
Rp1575
sI962
I6850293
sI963
g1
(g2
g3
L3885965549L
tp1576
Rp1577
sI964
g1
(g2
g3
L4330344660L
tp1578
Rp1579
sI965
g1
(g2
g3
L6286762891L
tp1580
Rp1581
sI966
g1
(g2
g3
L2958521898L
tp1582
Rp1583
sI967
g1
(g2
g3
L2823608235L
tp1584
Rp1585
sI968
g1
(g2
g3
L6831752962L
tp1586
Rp1587
sI969
g1
(g2
g3
L8827971702L
tp1588
Rp1589
sI970
g1
(g2
g3
L5323034579L
tp1590
Rp1591
sI971
g1
(g2
g3
L7948857510L
tp1592
Rp1593
sI972
g1
(g2
g3
L3288288923L
tp1594
Rp1595
sI973
g1
(g2
g3
L8990445618L
tp1596
Rp1597
sI974
g1
(g2
g3
L2724192675L
tp1598
Rp1599
sI975
g1
(g2
g3
L8043786168L
tp1600
Rp1601
sI976
g1
(g2
g3
L5596679646L
tp1602
Rp1603
sI977
g1
(g2
g3
L4811473485L
tp1604
Rp1605
sI978
g1
(g2
g3
L2427570523L
tp1606
Rp1607
sI979
g1
(g2
g3
L4945824312L
tp1608
Rp1609
sI980
I1710391579
sI981
g1
(g2
g3
L2650639582L
tp1610
Rp1611
sI982
g1
(g2
g3
L3224547473L
tp1612
Rp1613
sI983
g1
(g2
g3
L2398588973L
tp1614
Rp1615
sI984
g1
(g2
g3
L7401906128L
tp1616
Rp1617
sI985
g1
(g2
g3
L5410454698L
tp1618
Rp1619
sI986
g1
(g2
g3
L5097059544L
tp1620
Rp1621
sI987
g1
(g2
g3
L7840245104L
tp1622
Rp1623
sI988
g1
(g2
g3
L9076710225L
tp1624
Rp1625
sI989
g1
(g2
g3
L9211735851L
tp1626
Rp1627
sI990
g1
(g2
g3
L2643508014L
tp1628
Rp1629
sI991
g1
(g2
g3
L2560852677L
tp1630
Rp1631
sI992
g1
(g2
g3
L3955028107L
tp1632
Rp1633
sI993
g1
(g2
g3
L4934674830L
tp1634
Rp1635
sI994
g1
(g2
g3
L2797137136L
tp1636
Rp1637
sI995
g1
(g2
g3
L7485401988L
tp1638
Rp1639
sI996
g1
(g2
g3
L7041737539L
tp1640
Rp1641
sI997
I1070883797
sI998
g1
(g2
g3
L3721427120L
tp1642
Rp1643
sI999
g1
(g2
g3
L4793002652L
tp1644
Rp1645
sI1000
g1
(g2
g3
L5987331576L
tp1646
Rp1647
sI1001
g1
(g2
g3
L7954286628L
tp1648
Rp1649
sI1002
g1
(g2
g3
L2992040945L
tp1650
Rp1651
sI1003
g1
(g2
g3
L4133334045L
tp1652
Rp1653
sI1004
g1
(g2
g3
L12083702365L
tp1654
Rp1655
sI1005
g1
(g2
g3
L5026392752L
tp1656
Rp1657
sI1006
I233531522
sI1007
g1
(g2
g3
L5015977410L
tp1658
Rp1659
sI1008
g1
(g2
g3
L2402369904L
tp1660
Rp1661
sI1009
I1434753931
sI1010
g1
(g2
g3
L4698964991L
tp1662
Rp1663
sI1011
g1
(g2
g3
L2189789002L
tp1664
Rp1665
sI1012
g1
(g2
g3
L3193722529L
tp1666
Rp1667
sI1013
g1
(g2
g3
L3746587743L
tp1668
Rp1669
sI1014
g1
(g2
g3
L8241508911L
tp1670
Rp1671
sI1015
g1
(g2
g3
L3166884093L
tp1672
Rp1673
sI1016
g1
(g2
g3
L4672211903L
tp1674
Rp1675
sI1017
g1
(g2
g3
L8230468485L
tp1676
Rp1677
sI1018
g1
(g2
g3
L4963642795L
tp1678
Rp1679
sI1019
g1
(g2
g3
L2728281753L
tp1680
Rp1681
sI1020
g1
(g2
g3
L6145125720L
tp1682
Rp1683
sI1021
I234884663
sI1022
g1
(g2
g3
L13156905423L
tp1684
Rp1685
sI1023
g1
(g2
g3
L5001883749L
tp1686
Rp1687
sI1024
I461553153
sI1025
g1
(g2
g3
L8081025619L
tp1688
Rp1689
sI1026
g1
(g2
g3
L4959748239L
tp1690
Rp1691
sI1027
g1
(g2
g3
L2700387075L
tp1692
Rp1693
sI1028
I2045802653
sI1029
g1
(g2
g3
L4315775744L
tp1694
Rp1695
sI1030
I260973770
sI1031
g1
(g2
g3
L3786430773L
tp1696
Rp1697
sI1032
g1
(g2
g3
L2667030141L
tp1698
Rp1699
sI1033
g1
(g2
g3
L4857233612L
tp1700
Rp1701
sI1034
g1
(g2
g3
L11423740823L
tp1702
Rp1703
sI1035
g1
(g2
g3
L4799221458L
tp1704
Rp1705
sI1036
I34057154
sI1037
g1
(g2
g3
L8578204613L
tp1706
Rp1707
sI1038
I1992410649
sI1039
I361955166
sI1040
I807932364
sI1041
g1
(g2
g3
L4769838137L
tp1708
Rp1709
sI1042
g1
(g2
g3
L3499030590L
tp1710
Rp1711
sI1043
I1813759848
sI1044
g1
(g2
g3
L9969602344L
tp1712
Rp1713
sI1045
I873934049
sI1046
g1
(g2
g3
L9083737152L
tp1714
Rp1715
sI1047
I441603053
sI1048
g1
(g2
g3
L3164462954L
tp1716
Rp1717
sI1049
g1
(g2
g3
L5618933644L
tp1718
Rp1719
sI1050
g1
(g2
g3
L3304182892L
tp1720
Rp1721
sI1051
g1
(g2
g3
L7570898944L
tp1722
Rp1723
sI1052
g1
(g2
g3
L13527233663L
tp1724
Rp1725
sI1053
g1
(g2
g3
L8707634278L
tp1726
Rp1727
sI1054
g1
(g2
g3
L5457327333L
tp1728
Rp1729
sI1055
g1
(g2
g3
L6989072615L
tp1730
Rp1731
sI1056
g1
(g2
g3
L7289023174L
tp1732
Rp1733
sI1057
g1
(g2
g3
L8473825653L
tp1734
Rp1735
sI1058
g1
(g2
g3
L3518090515L
tp1736
Rp1737
sI1059
g1
(g2
g3
L4473417921L
tp1738
Rp1739
sI1060
g1
(g2
g3
L3274857283L
tp1740
Rp1741
sI1061
g1
(g2
g3
L5749163419L
tp1742
Rp1743
sI1062
g1
(g2
g3
L9447747609L
tp1744
Rp1745
sI1063
g1
(g2
g3
L8609819430L
tp1746
Rp1747
sI1064
g1
(g2
g3
L8707636782L
tp1748
Rp1749
sI1065
g1
(g2
g3
L7995581984L
tp1750
Rp1751
sI1066
I956748561
sI1067
g1
(g2
g3
L3507386434L
tp1752
Rp1753
sI1068
g1
(g2
g3
L4925886446L
tp1754
Rp1755
sI1069
g1
(g2
g3
L3410717284L
tp1756
Rp1757
sI1070
g1
(g2
g3
L6174549022L
tp1758
Rp1759
sI1071
g1
(g2
g3
L2896958376L
tp1760
Rp1761
sI1072
I120544519
sI1073
g1
(g2
g3
L3866040046L
tp1762
Rp1763
sI1074
g1
(g2
g3
L4752790358L
tp1764
Rp1765
sI1075
g1
(g2
g3
L8187790492L
tp1766
Rp1767
sI1076
g1
(g2
g3
L9487579991L
tp1768
Rp1769
sI1077
I108986163
sI1078
g1
(g2
g3
L3012752514L
tp1770
Rp1771
sI1079
g1
(g2
g3
L3866879767L
tp1772
Rp1773
sI1080
I83920770
sI1081
g1
(g2
g3
L5190573998L
tp1774
Rp1775
sI1082
g1
(g2
g3
L6803910456L
tp1776
Rp1777
sI1083
g1
(g2
g3
L4453499249L
tp1778
Rp1779
sI1084
g1
(g2
g3
L6098344771L
tp1780
Rp1781
sI1085
I383153713
sI1086
g1
(g2
g3
L3187624601L
tp1782
Rp1783
sI1087
g1
(g2
g3
L5797447051L
tp1784
Rp1785
sI1088
I58275086
sI1089
g1
(g2
g3
L2715837111L
tp1786
Rp1787
sI1090
g1
(g2
g3
L3786994484L
tp1788
Rp1789
sI1091
g1
(g2
g3
L4858496738L
tp1790
Rp1791
sI1092
g1
(g2
g3
L7010047153L
tp1792
Rp1793
sI1093
g1
(g2
g3
L4986147822L
tp1794
Rp1795
sI1094
g1
(g2
g3
L4665584008L
tp1796
Rp1797
sI1095
g1
(g2
g3
L5075830719L
tp1798
Rp1799
sI1096
g1
(g2
g3
L5254108767L
tp1800
Rp1801
sI1097
g1
(g2
g3
L9175205302L
tp1802
Rp1803
sI1098
g1
(g2
g3
L12772930295L
tp1804
Rp1805
sI1099
I482485456
sI1100
I1298048998
sI1101
g1
(g2
g3
L2685488237L
tp1806
Rp1807
sI1102
I714624458
sI1103
g1
(g2
g3
L4675105964L
tp1808
Rp1809
sI1104
g1
(g2
g3
L6160642076L
tp1810
Rp1811
sI1105
g1
(g2
g3
L2715441368L
tp1812
Rp1813
sI1106
g1
(g2
g3
L7391031498L
tp1814
Rp1815
sI1107
g1
(g2
g3
L6081995723L
tp1816
Rp1817
sI1108
I235178488
sI1109
g1
(g2
g3
L8233778677L
tp1818
Rp1819
sI1110
g1
(g2
g3
L6842665836L
tp1820
Rp1821
sI1111
g1
(g2
g3
L5146384122L
tp1822
Rp1823
sI1112
g1
(g2
g3
L4930430486L
tp1824
Rp1825
sI1113
g1
(g2
g3
L2644101773L
tp1826
Rp1827
sI1114
g1
(g2
g3
L2266270410L
tp1828
Rp1829
sI1115
g1
(g2
g3
L10343224255L
tp1830
Rp1831
sI1116
g1
(g2
g3
L2799686039L
tp1832
Rp1833
sI1117
g1
(g2
g3
L5655213352L
tp1834
Rp1835
sI1118
g1
(g2
g3
L11182750103L
tp1836
Rp1837
sI1119
g1
(g2
g3
L9642845007L
tp1838
Rp1839
sI1120
g1
(g2
g3
L5154881294L
tp1840
Rp1841
sI1121
I120569054
sI1122
g1
(g2
g3
L6700434597L
tp1842
Rp1843
sI1123
I591576984
sI1124
g1
(g2
g3
L6459081917L
tp1844
Rp1845
sI1125
g1
(g2
g3
L2956893654L
tp1846
Rp1847
sI1126
I1589423113
sI1127
I347026679
sI1128
g1
(g2
g3
L3835559499L
tp1848
Rp1849
sI1129
g1
(g2
g3
L3530539210L
tp1850
Rp1851
sI1130
I1187277038
sI1131
I1111018228
sI1132
g1
(g2
g3
L5686580513L
tp1852
Rp1853
sI1133
I292033211
sI1134
g1
(g2
g3
L3436307782L
tp1854
Rp1855
sI1135
g1
(g2
g3
L7295472754L
tp1856
Rp1857
sI1136
g1
(g2
g3
L3991557540L
tp1858
Rp1859
sI1137
g1
(g2
g3
L4326749647L
tp1860
Rp1861
sI1138
I189637321
sI1139
g1
(g2
g3
L6933467534L
tp1862
Rp1863
sI1140
g1
(g2
g3
L3746587743L
tp1864
Rp1865
sI1141
g1
(g2
g3
L5073583449L
tp1866
Rp1867
sI1142
g1
(g2
g3
L7397556418L
tp1868
Rp1869
sI1143
g1
(g2
g3
L2245410657L
tp1870
Rp1871
sI1144
g1
(g2
g3
L7621032380L
tp1872
Rp1873
sI1145
g1
(g2
g3
L4918851416L
tp1874
Rp1875
sI1146
g1
(g2
g3
L9883241234L
tp1876
Rp1877
sI1147
I2145757065
sI1148
I1424389667
sI1149
I1183891806
sI1150
g1
(g2
g3
L5174294672L
tp1878
Rp1879
sI1151
g1
(g2
g3
L4522114455L
tp1880
Rp1881
sI1152
g1
(g2
g3
L2758890469L
tp1882
Rp1883
sI1153
I252143601
sI1154
g1
(g2
g3
L7011683679L
tp1884
Rp1885
sI1155
I1026640380
sI1156
g1
(g2
g3
L3685984159L
tp1886
Rp1887
sI1157
g1
(g2
g3
L8552544187L
tp1888
Rp1889
sI1158
g1
(g2
g3
L6549543369L
tp1890
Rp1891
sI1159
g1
(g2
g3
L3319452215L
tp1892
Rp1893
sI1160
g1
(g2
g3
L5276942595L
tp1894
Rp1895
sI1161
g1
(g2
g3
L2604338963L
tp1896
Rp1897
sI1162
g1
(g2
g3
L4038804775L
tp1898
Rp1899
sI1163
g1
(g2
g3
L4977575177L
tp1900
Rp1901
sI1164
I884362
sI1165
g1
(g2
g3
L6877828155L
tp1902
Rp1903
sI1166
I108641309
sI1167
g1
(g2
g3
L5755815104L
tp1904
Rp1905
sI1168
g1
(g2
g3
L3468192709L
tp1906
Rp1907
sI1169
g1
(g2
g3
L7628833936L
tp1908
Rp1909
sI1170
I113831229
sI1171
g1
(g2
g3
L7409295360L
tp1910
Rp1911
sI1172
I742182206
sI1173
g1
(g2
g3
L3751525554L
tp1912
Rp1913
sI1174
g1
(g2
g3
L11225268696L
tp1914
Rp1915
sI1175
g1
(g2
g3
L6900244298L
tp1916
Rp1917
sI1176
g1
(g2
g3
L4235832884L
tp1918
Rp1919
sI1177
g1
(g2
g3
L2424715719L
tp1920
Rp1921
sI1178
I270595796
sI1179
g1
(g2
g3
L13351711074L
tp1922
Rp1923
sI1180
I440848104
sI1181
g1
(g2
g3
L2862839959L
tp1924
Rp1925
sI1182
g1
(g2
g3
L5468046361L
tp1926
Rp1927
sI1183
g1
(g2
g3
L10303691043L
tp1928
Rp1929
sI1184
I396804756
sI1185
I634012903
sI1186
g1
(g2
g3
L3739286905L
tp1930
Rp1931
sI1187
g1
(g2
g3
L4415058407L
tp1932
Rp1933
sI1188
g1
(g2
g3
L7586236404L
tp1934
Rp1935
sI1189
g1
(g2
g3
L3939248530L
tp1936
Rp1937
sI1190
g1
(g2
g3
L7676077502L
tp1938
Rp1939
sI1191
g1
(g2
g3
L3304610774L
tp1940
Rp1941
sI1192
I191901635
sI1193
g1
(g2
g3
L8603260545L
tp1942
Rp1943
sI1194
g1
(g2
g3
L3106830959L
tp1944
Rp1945
sI1195
g1
(g2
g3
L5559049366L
tp1946
Rp1947
sI1196
g1
(g2
g3
L5975363044L
tp1948
Rp1949
sI1197
g1
(g2
g3
L5378386396L
tp1950
Rp1951
sI1198
g1
(g2
g3
L4718871884L
tp1952
Rp1953
sI1199
I45609191
sI1200
g1
(g2
g3
L8081025619L
tp1954
Rp1955
sI1201
g1
(g2
g3
L2459975723L
tp1956
Rp1957
sI1202
g1
(g2
g3
L2249551851L
tp1958
Rp1959
sI1203
g1
(g2
g3
L5097182980L
tp1960
Rp1961
sI1204
g1
(g2
g3
L6206786728L
tp1962
Rp1963
sI1205
I443139022
sI1206
I10632272
sI1207
g1
(g2
g3
L10719276863L
tp1964
Rp1965
sI1208
g1
(g2
g3
L13046586125L
tp1966
Rp1967
sI1209
I387045601
sI1210
g1
(g2
g3
L5952473770L
tp1968
Rp1969
sI1211
g1
(g2
g3
L8383980578L
tp1970
Rp1971
sI1212
g1
(g2
g3
L8433863123L
tp1972
Rp1973
sI1213
I307415145
sI1214
g1
(g2
g3
L9414022752L
tp1974
Rp1975
sI1215
g1
(g2
g3
L3691313284L
tp1976
Rp1977
sI1216
g1
(g2
g3
L3872793902L
tp1978
Rp1979
sI1217
g1
(g2
g3
L5733136595L
tp1980
Rp1981
sI1218
g1
(g2
g3
L9484872058L
tp1982
Rp1983
sI1219
g1
(g2
g3
L4946434155L
tp1984
Rp1985
sI1220
g1
(g2
g3
L3843226901L
tp1986
Rp1987
sI1221
g1
(g2
g3
L6901130391L
tp1988
Rp1989
sI1222
g1
(g2
g3
L5737129836L
tp1990
Rp1991
sI1223
g1
(g2
g3
L5712255201L
tp1992
Rp1993
sI1224
g1
(g2
g3
L5255224137L
tp1994
Rp1995
sI1225
g1
(g2
g3
L7570898944L
tp1996
Rp1997
sI1226
g1
(g2
g3
L12382987725L
tp1998
Rp1999
sI1227
g1
(g2
g3
L4173945829L
tp2000
Rp2001
sI1228
I1321424199
sI1229
g1
(g2
g3
L2983229656L
tp2002
Rp2003
sI1230
g1
(g2
g3
L3988297656L
tp2004
Rp2005
sI1231
g1
(g2
g3
L7020612425L
tp2006
Rp2007
sI1232
g1
(g2
g3
L3184524968L
tp2008
Rp2009
sI1233
g1
(g2
g3
L4865617285L
tp2010
Rp2011
sI1234
g1
(g2
g3
L3531789933L
tp2012
Rp2013
sI1235
g1
(g2
g3
L8091098404L
tp2014
Rp2015
sI1236
I220593608
sI1237
g1
(g2
g3
L6349230081L
tp2016
Rp2017
sI1238
g1
(g2
g3
L7290592470L
tp2018
Rp2019
sI1239
g1
(g2
g3
L5062246649L
tp2020
Rp2021
sI1240
g1
(g2
g3
L5836466023L
tp2022
Rp2023
sI1241
g1
(g2
g3
L7859308902L
tp2024
Rp2025
sI1242
g1
(g2
g3
L8958349894L
tp2026
Rp2027
sI1243
g1
(g2
g3
L2314404459L
tp2028
Rp2029
sI1244
g1
(g2
g3
L2338027619L
tp2030
Rp2031
sI1245
g1
(g2
g3
L8450592834L
tp2032
Rp2033
sI1246
g1
(g2
g3
L6356237897L
tp2034
Rp2035
sI1247
g1
(g2
g3
L2994254261L
tp2036
Rp2037
sI1248
g1
(g2
g3
L2950918491L
tp2038
Rp2039
sI1249
I120544519
sI1250
g1
(g2
g3
L4614651532L
tp2040
Rp2041
sI1251
g1
(g2
g3
L7973088474L
tp2042
Rp2043
sI1252
g1
(g2
g3
L5941642080L
tp2044
Rp2045
sI1253
g1
(g2
g3
L7939292506L
tp2046
Rp2047
sI1254
I854220375
sI1255
g1
(g2
g3
L2311220499L
tp2048
Rp2049
sI1256
g1
(g2
g3
L6690731995L
tp2050
Rp2051
sI1257
g1
(g2
g3
L6660767951L
tp2052
Rp2053
sI1258
g1
(g2
g3
L2729939915L
tp2054
Rp2055
sI1259
g1
(g2
g3
L7944952188L
tp2056
Rp2057
sI1260
g1
(g2
g3
L3665224916L
tp2058
Rp2059
sI1261
g1
(g2
g3
L5948690708L
tp2060
Rp2061
sI1262
I256029843
sI1263
g1
(g2
g3
L2926401030L
tp2062
Rp2063
sI1264
g1
(g2
g3
L7668486392L
tp2064
Rp2065
sI1265
g1
(g2
g3
L9203647080L
tp2066
Rp2067
sI1266
g1
(g2
g3
L6669415903L
tp2068
Rp2069
sI1267
g1
(g2
g3
L5532999215L
tp2070
Rp2071
sI1268
g1
(g2
g3
L6810096457L
tp2072
Rp2073
sI1269
g1
(g2
g3
L7148495915L
tp2074
Rp2075
sI1270
g1
(g2
g3
L5207064573L
tp2076
Rp2077
sI1271
g1
(g2
g3
L2860570987L
tp2078
Rp2079
sI1272
g1
(g2
g3
L3108271518L
tp2080
Rp2081
sI1273
g1
(g2
g3
L2325722789L
tp2082
Rp2083
sI1274
g1
(g2
g3
L4578657695L
tp2084
Rp2085
sI1275
g1
(g2
g3
L8566821608L
tp2086
Rp2087
sI1276
g1
(g2
g3
L2335017637L
tp2088
Rp2089
sI1277
g1
(g2
g3
L7172859805L
tp2090
Rp2091
sI1278
g1
(g2
g3
L13673278144L
tp2092
Rp2093
sI1279
g1
(g2
g3
L7917055232L
tp2094
Rp2095
sI1280
g1
(g2
g3
L8149703474L
tp2096
Rp2097
sI1281
g1
(g2
g3
L2331816305L
tp2098
Rp2099
sI1282
I1509021658
sI1283
I1584568410
sI1284
g1
(g2
g3
L8527859760L
tp2100
Rp2101
sI1285
I13824826
sI1286
g1
(g2
g3
L4192860445L
tp2102
Rp2103
sI1287
I191314090
sI1288
g1
(g2
g3
L2822038952L
tp2104
Rp2105
sI1289
g1
(g2
g3
L6831752962L
tp2106
Rp2107
sI1290
g1
(g2
g3
L3696576535L
tp2108
Rp2109
sI1291
g1
(g2
g3
L6687626415L
tp2110
Rp2111
sI1292
g1
(g2
g3
L4630414608L
tp2112
Rp2113
sI1293
g1
(g2
g3
L6348803963L
tp2114
Rp2115
sI1294
g1
(g2
g3
L6836971506L
tp2116
Rp2117
sI1295
g1
(g2
g3
L2516771136L
tp2118
Rp2119
sI1296
I515038867
sI1297
g1
(g2
g3
L4231087348L
tp2120
Rp2121
sI1298
g1
(g2
g3
L6842665836L
tp2122
Rp2123
sI1299
g1
(g2
g3
L3523053825L
tp2124
Rp2125
sI1300
g1
(g2
g3
L2949728222L
tp2126
Rp2127
sI1301
I184354642
sI1302
g1
(g2
g3
L3646182676L
tp2128
Rp2129
sI1303
g1
(g2
g3
L8565814635L
tp2130
Rp2131
sI1304
g1
(g2
g3
L3336677191L
tp2132
Rp2133
sI1305
g1
(g2
g3
L4199622908L
tp2134
Rp2135
sI1306
g1
(g2
g3
L2563594551L
tp2136
Rp2137
sI1307
g1
(g2
g3
L6069415106L
tp2138
Rp2139
sI1308
g1
(g2
g3
L4391367068L
tp2140
Rp2141
sI1309
I120569054
sI1310
g1
(g2
g3
L5805104248L
tp2142
Rp2143
sI1311
I1494536126
sI1312
g1
(g2
g3
L8049283287L
tp2144
Rp2145
sI1313
g1
(g2
g3
L9124408741L
tp2146
Rp2147
sI1314
g1
(g2
g3
L7164851381L
tp2148
Rp2149
sI1315
g1
(g2
g3
L2693874637L
tp2150
Rp2151
sI1316
g1
(g2
g3
L4325561386L
tp2152
Rp2153
sI1317
I2045480311
sI1318
I2110297704
sI1319
g1
(g2
g3
L5542314517L
tp2154
Rp2155
sI1320
I108468608
sI1321
g1
(g2
g3
L10393046853L
tp2156
Rp2157
sI1322
g1
(g2
g3
L2468433841L
tp2158
Rp2159
sI1323
g1
(g2
g3
L2648696786L
tp2160
Rp2161
sI1324
g1
(g2
g3
L8523423275L
tp2162
Rp2163
sI1325
g1
(g2
g3
L8017587343L
tp2164
Rp2165
sI1326
g1
(g2
g3
L9497094299L
tp2166
Rp2167
sI1327
g1
(g2
g3
L8194342361L
tp2168
Rp2169
sI1328
g1
(g2
g3
L7309322436L
tp2170
Rp2171
sI1329
g1
(g2
g3
L3980825805L
tp2172
Rp2173
sI1330
I452875115
sI1331
g1
(g2
g3
L6284633432L
tp2174
Rp2175
sI1332
g1
(g2
g3
L4841255095L
tp2176
Rp2177
sI1333
g1
(g2
g3
L7884246190L
tp2178
Rp2179
sI1334
g1
(g2
g3
L6690673761L
tp2180
Rp2181
sI1335
g1
(g2
g3
L3707714977L
tp2182
Rp2183
sI1336
g1
(g2
g3
L2642577336L
tp2184
Rp2185
sI1337
g1
(g2
g3
L5164537746L
tp2186
Rp2187
sI1338
g1
(g2
g3
L2929798903L
tp2188
Rp2189
sI1339
g1
(g2
g3
L3970993826L
tp2190
Rp2191
sI1340
g1
(g2
g3
L2715871551L
tp2192
Rp2193
sI1341
I3520242
sI1342
g1
(g2
g3
L4124793919L
tp2194
Rp2195
sI1343
g1
(g2
g3
L3232743718L
tp2196
Rp2197
sI1344
g1
(g2
g3
L3028789172L
tp2198
Rp2199
sI1345
I562285237
sI1346
g1
(g2
g3
L3339206219L
tp2200
Rp2201
sI1347
g1
(g2
g3
L8523610290L
tp2202
Rp2203
sI1348
g1
(g2
g3
L4454898278L
tp2204
Rp2205
sI1349
g1
(g2
g3
L5292385956L
tp2206
Rp2207
sI1350
g1
(g2
g3
L9421703243L
tp2208
Rp2209
sI1351
g1
(g2
g3
L8104331527L
tp2210
Rp2211
sI1352
g1
(g2
g3
L3979728617L
tp2212
Rp2213
sI1353
g1
(g2
g3
L3908559245L
tp2214
Rp2215
sI1354
g1
(g2
g3
L8570282631L
tp2216
Rp2217
sI1355
I2046464863
sI1356
g1
(g2
g3
L7312428024L
tp2218
Rp2219
sI1357
g1
(g2
g3
L5642936565L
tp2220
Rp2221
sI1358
g1
(g2
g3
L9158097675L
tp2222
Rp2223
sI1359
g1
(g2
g3
L2620074632L
tp2224
Rp2225
sI1360
g1
(g2
g3
L8438088552L
tp2226
Rp2227
sI1361
I1852690707
sI1362
g1
(g2
g3
L3936134355L
tp2228
Rp2229
sI1363
g1
(g2
g3
L8455795131L
tp2230
Rp2231
sI1364
g1
(g2
g3
L10203933166L
tp2232
Rp2233
sI1365
g1
(g2
g3
L7079191587L
tp2234
Rp2235
sI1366
g1
(g2
g3
L7571328980L
tp2236
Rp2237
sI1367
g1
(g2
g3
L4538918812L
tp2238
Rp2239
sI1368
g1
(g2
g3
L9083737152L
tp2240
Rp2241
sI1369
g1
(g2
g3
L3544096867L
tp2242
Rp2243
sI1370
g1
(g2
g3
L5675239014L
tp2244
Rp2245
sI1371
g1
(g2
g3
L6213178195L
tp2246
Rp2247
sI1372
g1
(g2
g3
L5243256870L
tp2248
Rp2249
sI1373
g1
(g2
g3
L8104934257L
tp2250
Rp2251
sI1374
I1202007485
sI1375
g1
(g2
g3
L2262565200L
tp2252
Rp2253
sI1376
g1
(g2
g3
L6822265440L
tp2254
Rp2255
sI1377
g1
(g2
g3
L6765305735L
tp2256
Rp2257
sI1378
I252129992
sI1379
g1
(g2
g3
L3352342584L
tp2258
Rp2259
sI1380
g1
(g2
g3
L10218860186L
tp2260
Rp2261
sI1381
g1
(g2
g3
L2382363532L
tp2262
Rp2263
sI1382
g1
(g2
g3
L2152165732L
tp2264
Rp2265
sI1383
g1
(g2
g3
L4509567625L
tp2266
Rp2267
sI1384
g1
(g2
g3
L6700131411L
tp2268
Rp2269
sI1385
g1
(g2
g3
L3735966115L
tp2270
Rp2271
sI1386
g1
(g2
g3
L4186244017L
tp2272
Rp2273
sI1387
g1
(g2
g3
L6284447400L
tp2274
Rp2275
sI1388
g1
(g2
g3
L4145653539L
tp2276
Rp2277
sI1389
I2076814814
sI1390
g1
(g2
g3
L5382531600L
tp2278
Rp2279
sI1391
I974720446
sI1392
g1
(g2
g3
L5062397066L
tp2280
Rp2281
sI1393
g1
(g2
g3
L11059546726L
tp2282
Rp2283
sI1394
g1
(g2
g3
L7873327704L
tp2284
Rp2285
sI1395
g1
(g2
g3
L7954943092L
tp2286
Rp2287
sI1396
g1
(g2
g3
L5734106309L
tp2288
Rp2289
sI1397
g1
(g2
g3
L3269166427L
tp2290
Rp2291
sI1398
g1
(g2
g3
L4191294728L
tp2292
Rp2293
sI1399
I1493359872
sI1400
g1
(g2
g3
L9305412014L
tp2294
Rp2295
sI1401
g1
(g2
g3
L6873937918L
tp2296
Rp2297
sI1402
I114103234
sI1403
g1
(g2
g3
L3179440101L
tp2298
Rp2299
sI1404
g1
(g2
g3
L4626665366L
tp2300
Rp2301
sI1405
g1
(g2
g3
L4436706175L
tp2302
Rp2303
sI1406
I439610664
sI1407
g1
(g2
g3
L7063347529L
tp2304
Rp2305
sI1408
g1
(g2
g3
L2521910639L
tp2306
Rp2307
sI1409
g1
(g2
g3
L2855653910L
tp2308
Rp2309
sI1410
g1
(g2
g3
L5987136768L
tp2310
Rp2311
sI1411
g1
(g2
g3
L8337026731L
tp2312
Rp2313
sI1412
g1
(g2
g3
L7770406318L
tp2314
Rp2315
sI1413
g1
(g2
g3
L2211535599L
tp2316
Rp2317
sI1414
g1
(g2
g3
L3965390098L
tp2318
Rp2319
sI1415
g1
(g2
g3
L5970127513L
tp2320
Rp2321
sI1416
g1
(g2
g3
L3787469347L
tp2322
Rp2323
sI1417
g1
(g2
g3
L10849276424L
tp2324
Rp2325
sI1418
g1
(g2
g3
L13415542303L
tp2326
Rp2327
sI1419
g1
(g2
g3
L5097486938L
tp2328
Rp2329
sI1420
g1
(g2
g3
L8396410195L
tp2330
Rp2331
sI1421
g1
(g2
g3
L7769642712L
tp2332
Rp2333
sI1422
g1
(g2
g3
L3795460123L
tp2334
Rp2335
sI1423
g1
(g2
g3
L7992882995L
tp2336
Rp2337
sI1424
g1
(g2
g3
L11772965264L
tp2338
Rp2339
sI1425
I42234389
sI1426
g1
(g2
g3
L4187652279L
tp2340
Rp2341
sI1427
g1
(g2
g3
L9984274044L
tp2342
Rp2343
sI1428
I1489970083
sI1429
g1
(g2
g3
L5416988068L
tp2344
Rp2345
sI1430
g1
(g2
g3
L13015496443L
tp2346
Rp2347
sI1431
g1
(g2
g3
L5871268184L
tp2348
Rp2349
sI1432
g1
(g2
g3
L8715834009L
tp2350
Rp2351
sI1433
g1
(g2
g3
L4875726966L
tp2352
Rp2353
sI1434
g1
(g2
g3
L5280428703L
tp2354
Rp2355
sI1435
g1
(g2
g3
L4145633769L
tp2356
Rp2357
sI1436
g1
(g2
g3
L2708042394L
tp2358
Rp2359
sI1437
g1
(g2
g3
L2647200120L
tp2360
Rp2361
sI1438
g1
(g2
g3
L6004848271L
tp2362
Rp2363
sI1439
g1
(g2
g3
L9238843714L
tp2364
Rp2365
sI1440
g1
(g2
g3
L3805105809L
tp2366
Rp2367
sI1441
g1
(g2
g3
L11772675073L
tp2368
Rp2369
sI1442
g1
(g2
g3
L5243833105L
tp2370
Rp2371
sI1443
g1
(g2
g3
L6271359291L
tp2372
Rp2373
sI1444
g1
(g2
g3
L3911983497L
tp2374
Rp2375
sI1445
I268949209
sI1446
g1
(g2
g3
L3916188491L
tp2376
Rp2377
sI1447
g1
(g2
g3
L3146508671L
tp2378
Rp2379
sI1448
g1
(g2
g3
L7035233059L
tp2380
Rp2381
sI1449
I46717646
sI1450
g1
(g2
g3
L6818997907L
tp2382
Rp2383
sI1451
g1
(g2
g3
L9731990174L
tp2384
Rp2385
sI1452
I541005208
sI1453
I2040615311
sI1454
g1
(g2
g3
L2235063828L
tp2386
Rp2387
sI1455
I51712337
sI1456
g1
(g2
g3
L3716734017L
tp2388
Rp2389
sI1457
g1
(g2
g3
L5602705765L
tp2390
Rp2391
sI1458
g1
(g2
g3
L2535246613L
tp2392
Rp2393
sI1459
g1
(g2
g3
L6975243423L
tp2394
Rp2395
sI1460
I179009876
sI1461
I613981325
sI1462
g1
(g2
g3
L5063707025L
tp2396
Rp2397
sI1463
I120454738
sI1464
g1
(g2
g3
L7055028561L
tp2398
Rp2399
sI1465
I1364359492
sI1466
I1279864626
sI1467
g1
(g2
g3
L4999975563L
tp2400
Rp2401
sI1468
g1
(g2
g3
L5413741483L
tp2402
Rp2403
sI1469
I186057408
sI1470
I1668717879
sI1471
g1
(g2
g3
L5547632708L
tp2404
Rp2405
sI1472
g1
(g2
g3
L3706474758L
tp2406
Rp2407
sI1473
I411399035
sI1474
I449298312
sI1475
I1894733365
sI1476
I235531243
sI1477
g1
(g2
g3
L3937245890L
tp2408
Rp2409
sI1478
g1
(g2
g3
L3701758619L
tp2410
Rp2411
sI1479
g1
(g2
g3
L3499287334L
tp2412
Rp2413
sI1480
g1
(g2
g3
L2415749986L
tp2414
Rp2415
sI1481
g1
(g2
g3
L9383279524L
tp2416
Rp2417
sI1482
g1
(g2
g3
L3734151111L
tp2418
Rp2419
sI1483
g1
(g2
g3
L5768757997L
tp2420
Rp2421
sI1484
g1
(g2
g3
L6870644348L
tp2422
Rp2423
sI1485
g1
(g2
g3
L7102183805L
tp2424
Rp2425
sI1486
g1
(g2
g3
L6619629685L
tp2426
Rp2427
sI1487
g1
(g2
g3
L5358219639L
tp2428
Rp2429
sI1488
I890801742
sI1489
g1
(g2
g3
L7355403818L
tp2430
Rp2431
sI1490
I379064686
sI1491
g1
(g2
g3
L3509802064L
tp2432
Rp2433
sI1492
g1
(g2
g3
L2926547250L
tp2434
Rp2435
sI1493
g1
(g2
g3
L13679563043L
tp2436
Rp2437
sI1494
g1
(g2
g3
L3292957229L
tp2438
Rp2439
sI1495
g1
(g2
g3
L8126162215L
tp2440
Rp2441
sI1496
g1
(g2
g3
L4878435676L
tp2442
Rp2443
sI1497
g1
(g2
g3
L12449833555L
tp2444
Rp2445
sI1498
g1
(g2
g3
L12266716916L
tp2446
Rp2447
sI1499
g1
(g2
g3
L5042507806L
tp2448
Rp2449
sI1500
g1
(g2
g3
L3061666749L
tp2450
Rp2451
sI1501
g1
(g2
g3
L3865078739L
tp2452
Rp2453
sI1502
I480640978
sI1503
g1
(g2
g3
L3914121369L
tp2454
Rp2455
sI1504
g1
(g2
g3
L4783012953L
tp2456
Rp2457
sI1505
g1
(g2
g3
L3414534624L
tp2458
Rp2459
sI1506
g1
(g2
g3
L11772626645L
tp2460
Rp2461
sI1507
g1
(g2
g3
L2370879825L
tp2462
Rp2463
sI1508
g1
(g2
g3
L5691291471L
tp2464
Rp2465
sI1509
g1
(g2
g3
L9770172805L
tp2466
Rp2467
sI1510
g1
(g2
g3
L5999178936L
tp2468
Rp2469
sI1511
I886553929
sI1512
I526148500
sI1513
g1
(g2
g3
L5243834825L
tp2470
Rp2471
sI1514
g1
(g2
g3
L3103038343L
tp2472
Rp2473
sI1515
I855205753
sI1516
g1
(g2
g3
L4674790248L
tp2474
Rp2475
sI1517
I2138268038
sI1518
g1
(g2
g3
L3408441963L
tp2476
Rp2477
sI1519
g1
(g2
g3
L5634548951L
tp2478
Rp2479
sI1520
g1
(g2
g3
L3104298622L
tp2480
Rp2481
sI1521
g1
(g2
g3
L6558191431L
tp2482
Rp2483
sI1522
g1
(g2
g3
L3146650565L
tp2484
Rp2485
sI1523
g1
(g2
g3
L12001482864L
tp2486
Rp2487
sI1524
g1
(g2
g3
L6118926264L
tp2488
Rp2489
sI1525
g1
(g2
g3
L8321809469L
tp2490
Rp2491
sI1526
I738174055
sI1527
I434542035
sI1528
g1
(g2
g3
L3257683382L
tp2492
Rp2493
sI1529
g1
(g2
g3
L5196561996L
tp2494
Rp2495
sI1530
g1
(g2
g3
L2179387421L
tp2496
Rp2497
sI1531
I152632896
sI1532
I321351619
sI1533
g1
(g2
g3
L2663869507L
tp2498
Rp2499
sI1534
g1
(g2
g3
L5187315532L
tp2500
Rp2501
sI1535
g1
(g2
g3
L4299227016L
tp2502
Rp2503
sI1536
I214953319
sI1537
g1
(g2
g3
L5020799287L
tp2504
Rp2505
sI1538
g1
(g2
g3
L8663983614L
tp2506
Rp2507
sI1539
I34057154
sI1540
g1
(g2
g3
L2205107328L
tp2508
Rp2509
sI1541
g1
(g2
g3
L7004333961L
tp2510
Rp2511
sI1542
g1
(g2
g3
L4099536913L
tp2512
Rp2513
sI1543
I240592520
sI1544
I1394839359
sI1545
g1
(g2
g3
L12041387703L
tp2514
Rp2515
sI1546
g1
(g2
g3
L5172454314L
tp2516
Rp2517
sI1547
g1
(g2
g3
L6224813866L
tp2518
Rp2519
sI1548
g1
(g2
g3
L5590469313L
tp2520
Rp2521
sI1549
g1
(g2
g3
L2649901401L
tp2522
Rp2523
sI1550
I141685033
sI1551
g1
(g2
g3
L3676055551L
tp2524
Rp2525
sI1552
g1
(g2
g3
L7289023174L
tp2526
Rp2527
sI1553
g1
(g2
g3
L2671451786L
tp2528
Rp2529
sI1554
I45968965
sI1555
g1
(g2
g3
L3887798241L
tp2530
Rp2531
sI1556
I227511438
sI1557
I93203198
sI1558
g1
(g2
g3
L4442080213L
tp2532
Rp2533
sI1559
g1
(g2
g3
L2175083701L
tp2534
Rp2535
sI1560
g1
(g2
g3
L9488169042L
tp2536
Rp2537
sI1561
I1488128055
sI1562
g1
(g2
g3
L5453364851L
tp2538
Rp2539
sI1563
g1
(g2
g3
L6013379477L
tp2540
Rp2541
sI1564
g1
(g2
g3
L9630929803L
tp2542
Rp2543
sI1565
I1453835897
sI1566
I482866968
sI1567
g1
(g2
g3
L2777672726L
tp2544
Rp2545
sI1568
g1
(g2
g3
L3284652194L
tp2546
Rp2547
sI1569
g1
(g2
g3
L3150517671L
tp2548
Rp2549
sI1570
g1
(g2
g3
L5543627961L
tp2550
Rp2551
sI1571
g1
(g2
g3
L2376440089L
tp2552
Rp2553
sI1572
g1
(g2
g3
L5763240754L
tp2554
Rp2555
sI1573
g1
(g2
g3
L5971455692L
tp2556
Rp2557
sI1574
g1
(g2
g3
L3309121215L
tp2558
Rp2559
sI1575
I740390361
sI1576
g1
(g2
g3
L9179343348L
tp2560
Rp2561
sI1577
g1
(g2
g3
L6224741498L
tp2562
Rp2563
sI1578
g1
(g2
g3
L4780264522L
tp2564
Rp2565
sI1579
g1
(g2
g3
L3583987335L
tp2566
Rp2567
sI1580
g1
(g2
g3
L2768446716L
tp2568
Rp2569
sI1581
g1
(g2
g3
L2169824208L
tp2570
Rp2571
sI1582
g1
(g2
g3
L6831752962L
tp2572
Rp2573
sI1583
g1
(g2
g3
L6905552070L
tp2574
Rp2575
sI1584
g1
(g2
g3
L5763216184L
tp2576
Rp2577
sI1585
g1
(g2
g3
L5451411579L
tp2578
Rp2579
sI1586
I280929229
sI1587
I416082554
sI1588
g1
(g2
g3
L10907710574L
tp2580
Rp2581
sI1589
I617005036
sI1590
g1
(g2
g3
L4326749647L
tp2582
Rp2583
sI1591
g1
(g2
g3
L6057993451L
tp2584
Rp2585
sI1592
g1
(g2
g3
L7875442936L
tp2586
Rp2587
sI1593
g1
(g2
g3
L8697146216L
tp2588
Rp2589
sI1594
g1
(g2
g3
L5920028478L
tp2590
Rp2591
sI1595
g1
(g2
g3
L3023070895L
tp2592
Rp2593
sI1596
g1
(g2
g3
L8552544187L
tp2594
Rp2595
sI1597
g1
(g2
g3
L3739491333L
tp2596
Rp2597
sI1598
g1
(g2
g3
L2476281380L
tp2598
Rp2599
sI1599
I532176442
sI1600
g1
(g2
g3
L2604338963L
tp2600
Rp2601
sI1601
g1
(g2
g3
L6877828155L
tp2602
Rp2603
sI1602
g1
(g2
g3
L4896078639L
tp2604
Rp2605
sI1603
I1252378580
sI1604
g1
(g2
g3
L7161847521L
tp2606
Rp2607
sI1605
g1
(g2
g3
L7628833936L
tp2608
Rp2609
sI1606
g1
(g2
g3
L9603834559L
tp2610
Rp2611
sI1607
g1
(g2
g3
L2458114172L
tp2612
Rp2613
sI1608
I232599874
sI1609
g1
(g2
g3
L2483964354L
tp2614
Rp2615
sI1610
g1
(g2
g3
L7985715065L
tp2616
Rp2617
sI1611
g1
(g2
g3
L8223962871L
tp2618
Rp2619
sI1612
I2062985045
sI1613
I39858530
sI1614
I102283790
sI1615
I89857651
sI1616
g1
(g2
g3
L3796494860L
tp2620
Rp2621
sI1617
g1
(g2
g3
L5552452398L
tp2622
Rp2623
sI1618
I441969457
sI1619
g1
(g2
g3
L3741116056L
tp2624
Rp2625
sI1620
g1
(g2
g3
L3076788593L
tp2626
Rp2627
sI1621
g1
(g2
g3
L8579790607L
tp2628
Rp2629
sI1622
I2142651044
sI1623
g1
(g2
g3
L4768899804L
tp2630
Rp2631
sI1624
g1
(g2
g3
L3777131454L
tp2632
Rp2633
sI1625
g1
(g2
g3
L2426160254L
tp2634
Rp2635
sI1626
g1
(g2
g3
L5148049988L
tp2636
Rp2637
sI1627
g1
(g2
g3
L8262948132L
tp2638
Rp2639
sI1628
g1
(g2
g3
L2219921542L
tp2640
Rp2641
sI1629
I957573942
sI1630
g1
(g2
g3
L4767664864L
tp2642
Rp2643
sI1631
g1
(g2
g3
L2976232774L
tp2644
Rp2645
sI1632
I1444933607
sI1633
g1
(g2
g3
L3464748930L
tp2646
Rp2647
sI1634
g1
(g2
g3
L4598742569L
tp2648
Rp2649
sI1635
g1
(g2
g3
L2575971244L
tp2650
Rp2651
sI1636
g1
(g2
g3
L6734585701L
tp2652
Rp2653
sI1637
g1
(g2
g3
L2900848674L
tp2654
Rp2655
sI1638
I240728021
sI1639
g1
(g2
g3
L11728753953L
tp2656
Rp2657
sI1640
g1
(g2
g3
L4427249094L
tp2658
Rp2659
sI1641
g1
(g2
g3
L6590447903L
tp2660
Rp2661
sI1642
g1
(g2
g3
L3078777014L
tp2662
Rp2663
sI1643
g1
(g2
g3
L7995602590L
tp2664
Rp2665
sI1644
g1
(g2
g3
L3281229138L
tp2666
Rp2667
sI1645
I941003996
sI1646
g1
(g2
g3
L4431934472L
tp2668
Rp2669
sI1647
g1
(g2
g3
L4432664228L
tp2670
Rp2671
sI1648
g1
(g2
g3
L4012372748L
tp2672
Rp2673
sI1649
g1
(g2
g3
L3000277960L
tp2674
Rp2675
sI1650
g1
(g2
g3
L2542103405L
tp2676
Rp2677
sI1651
I279891292
sI1652
g1
(g2
g3
L6791853629L
tp2678
Rp2679
sI1653
g1
(g2
g3
L3184147135L
tp2680
Rp2681
sI1654
g1
(g2
g3
L5957120862L
tp2682
Rp2683
sI1655
g1
(g2
g3
L5980560476L
tp2684
Rp2685
sI1656
g1
(g2
g3
L3629300139L
tp2686
Rp2687
sI1657
g1
(g2
g3
L7722016150L
tp2688
Rp2689
sI1658
I154823274
sI1659
g1
(g2
g3
L5120607956L
tp2690
Rp2691
sI1660
g1
(g2
g3
L12858393765L
tp2692
Rp2693
sI1661
g1
(g2
g3
L4525367083L
tp2694
Rp2695
sI1662
g1
(g2
g3
L3667333595L
tp2696
Rp2697
sI1663
g1
(g2
g3
L4091136355L
tp2698
Rp2699
sI1664
g1
(g2
g3
L3444759897L
tp2700
Rp2701
sI1665
g1
(g2
g3
L2203566274L
tp2702
Rp2703
sI1666
g1
(g2
g3
L4533633995L
tp2704
Rp2705
sI1667
g1
(g2
g3
L4899358046L
tp2706
Rp2707
sI1668
g1
(g2
g3
L8471772353L
tp2708
Rp2709
sI1669
g1
(g2
g3
L4241873166L
tp2710
Rp2711
sI1670
g1
(g2
g3
L8347856902L
tp2712
Rp2713
sI1671
I1925058847
sI1672
g1
(g2
g3
L9393063178L
tp2714
Rp2715
sI1673
I382991100
sI1674
g1
(g2
g3
L3789610419L
tp2716
Rp2717
sI1675
g1
(g2
g3
L13891191382L
tp2718
Rp2719
sI1676
I13270337
sI1677
g1
(g2
g3
L2280462492L
tp2720
Rp2721
sI1678
I1812302089
sI1679
g1
(g2
g3
L8646565213L
tp2722
Rp2723
sI1680
g1
(g2
g3
L5936116434L
tp2724
Rp2725
sI1681
g1
(g2
g3
L7974310635L
tp2726
Rp2727
sI1682
g1
(g2
g3
L3823882167L
tp2728
Rp2729
sI1683
I400727349
sI1684
I1358725895
sI1685
g1
(g2
g3
L7278138992L
tp2730
Rp2731
sI1686
I86695729
sI1687
g1
(g2
g3
L3564225670L
tp2732
Rp2733
sI1688
g1
(g2
g3
L5496267167L
tp2734
Rp2735
sI1689
I241136370
sI1690
I453273043
sI1691
g1
(g2
g3
L5981823875L
tp2736
Rp2737
sI1692
I1732166156
sI1693
g1
(g2
g3
L4044294477L
tp2738
Rp2739
sI1694
g1
(g2
g3
L5355841000L
tp2740
Rp2741
sI1695
I401439012
sI1696
g1
(g2
g3
L6988629106L
tp2742
Rp2743
sI1697
I7038714
sI1698
g1
(g2
g3
L5184647287L
tp2744
Rp2745
sI1699
I544050201
sI1700
g1
(g2
g3
L5552028943L
tp2746
Rp2747
sI1701
g1
(g2
g3
L3247671043L
tp2748
Rp2749
sI1702
g1
(g2
g3
L4262121927L
tp2750
Rp2751
sI1703
g1
(g2
g3
L4333169643L
tp2752
Rp2753
sI1704
g1
(g2
g3
L10399892043L
tp2754
Rp2755
sI1705
I337179180
sI1706
g1
(g2
g3
L12689805854L
tp2756
Rp2757
sI1707
g1
(g2
g3
L5223971117L
tp2758
Rp2759
sI1708
g1
(g2
g3
L13046586125L
tp2760
Rp2761
sI1709
I402370071
sI1710
g1
(g2
g3
L2154647463L
tp2762
Rp2763
sI1711
g1
(g2
g3
L5265275667L
tp2764
Rp2765
sI1712
g1
(g2
g3
L4251696927L
tp2766
Rp2767
sI1713
g1
(g2
g3
L4378012050L
tp2768
Rp2769
sI1714
g1
(g2
g3
L4268610979L
tp2770
Rp2771
sI1715
I292841088
sI1716
g1
(g2
g3
L4245979010L
tp2772
Rp2773
sI1717
g1
(g2
g3
L5417001835L
tp2774
Rp2775
sI1718
I360813098
sI1719
g1
(g2
g3
L4576406784L
tp2776
Rp2777
sI1720
I390392898
sI1721
g1
(g2
g3
L13597867313L
tp2778
Rp2779
sI1722
g1
(g2
g3
L8127936077L
tp2780
Rp2781
sI1723
g1
(g2
g3
L5289510098L
tp2782
Rp2783
sI1724
g1
(g2
g3
L5420986936L
tp2784
Rp2785
sI1725
g1
(g2
g3
L12242414713L
tp2786
Rp2787
sI1726
g1
(g2
g3
L5316954322L
tp2788
Rp2789
sI1727
I9939948
sI1728
g1
(g2
g3
L4269155283L
tp2790
Rp2791
sI1729
I1130572576
sI1730
g1
(g2
g3
L4167131073L
tp2792
Rp2793
sI1731
g1
(g2
g3
L8580725160L
tp2794
Rp2795
sI1732
g1
(g2
g3
L4251777191L
tp2796
Rp2797
sI1733
g1
(g2
g3
L5228552547L
tp2798
Rp2799
sI1734
I385028760
sI1735
g1
(g2
g3
L4257858293L
tp2800
Rp2801
sI1736
g1
(g2
g3
L8652238822L
tp2802
Rp2803
sI1737
g1
(g2
g3
L3330676902L
tp2804
Rp2805
sI1738
I373038418
sI1739
g1
(g2
g3
L3246561593L
tp2806
Rp2807
sI1740
g1
(g2
g3
L3247229937L
tp2808
Rp2809
sI1741
g1
(g2
g3
L5247256165L
tp2810
Rp2811
sI1742
I1811531620
sI1743
I77994639
sI1744
g1
(g2
g3
L6803910456L
tp2812
Rp2813
sI1745
g1
(g2
g3
L8642425179L
tp2814
Rp2815
sI1746
g1
(g2
g3
L8554007041L
tp2816
Rp2817
sI1747
g1
(g2
g3
L3284652194L
tp2818
Rp2819
sI1748
g1
(g2
g3
L6719281123L
tp2820
Rp2821
sI1749
g1
(g2
g3
L5216551045L
tp2822
Rp2823
sI1750
g1
(g2
g3
L5293667288L
tp2824
Rp2825
sI1751
g1
(g2
g3
L3187624601L
tp2826
Rp2827
sI1752
g1
(g2
g3
L4342792720L
tp2828
Rp2829
sI1753
g1
(g2
g3
L2256335192L
tp2830
Rp2831
sI1754
g1
(g2
g3
L5296029128L
tp2832
Rp2833
sI1755
g1
(g2
g3
L4986147822L
tp2834
Rp2835
sI1756
g1
(g2
g3
L6233214721L
tp2836
Rp2837
sI1757
g1
(g2
g3
L8397024205L
tp2838
Rp2839
sI1758
g1
(g2
g3
L4300098998L
tp2840
Rp2841
sI1759
g1
(g2
g3
L3289319931L
tp2842
Rp2843
sI1760
g1
(g2
g3
L6822228591L
tp2844
Rp2845
sI1761
g1
(g2
g3
L2489625453L
tp2846
Rp2847
sI1762
g1
(g2
g3
L4202902741L
tp2848
Rp2849
sI1763
g1
(g2
g3
L5395039226L
tp2850
Rp2851
sI1764
g1
(g2
g3
L8426713060L
tp2852
Rp2853
sI1765
g1
(g2
g3
L3395049433L
tp2854
Rp2855
sI1766
I291686013
sI1767
g1
(g2
g3
L5008427375L
tp2856
Rp2857
sI1768
g1
(g2
g3
L2231781786L
tp2858
Rp2859
sI1769
I151696776
sI1770
g1
(g2
g3
L5344949960L
tp2860
Rp2861
sI1771
g1
(g2
g3
L4460418010L
tp2862
Rp2863
sI1772
I397405783
sI1773
g1
(g2
g3
L3250144441L
tp2864
Rp2865
sI1774
g1
(g2
g3
L2182150248L
tp2866
Rp2867
sI1775
g1
(g2
g3
L6700434597L
tp2868
Rp2869
sI1776
g1
(g2
g3
L3333604911L
tp2870
Rp2871
sI1777
g1
(g2
g3
L2980561418L
tp2872
Rp2873
sI1778
I484193293
sI1779
g1
(g2
g3
L4362666511L
tp2874
Rp2875
sI1780
g1
(g2
g3
L4800530843L
tp2876
Rp2877
sI1781
g1
(g2
g3
L5708563446L
tp2878
Rp2879
sI1782
g1
(g2
g3
L4285930139L
tp2880
Rp2881
sI1783
g1
(g2
g3
L12521582745L
tp2882
Rp2883
sI1784
I347026679
sI1785
I305174839
sI1786
g1
(g2
g3
L4414869079L
tp2884
Rp2885
sI1787
g1
(g2
g3
L3436307782L
tp2886
Rp2887
sI1788
g1
(g2
g3
L4246269764L
tp2888
Rp2889
sI1789
g1
(g2
g3
L8494627824L
tp2890
Rp2891
sI1790
g1
(g2
g3
L3246602567L
tp2892
Rp2893
sI1791
g1
(g2
g3
L5421769047L
tp2894
Rp2895
sI1792
g1
(g2
g3
L4326749647L
tp2896
Rp2897
sI1793
I372237402
sI1794
I995484727
sI1795
I332601676
sI1796
g1
(g2
g3
L11438761434L
tp2898
Rp2899
sI1797
g1
(g2
g3
L8322899038L
tp2900
Rp2901
sI1798
g1
(g2
g3
L5325295004L
tp2902
Rp2903
sI1799
g1
(g2
g3
L11474586273L
tp2904
Rp2905
sI1800
g1
(g2
g3
L3325559856L
tp2906
Rp2907
sI1801
g1
(g2
g3
L8552544187L
tp2908
Rp2909
sI1802
g1
(g2
g3
L8588972055L
tp2910
Rp2911
sI1803
g1
(g2
g3
L2176708117L
tp2912
Rp2913
sI1804
g1
(g2
g3
L9000684843L
tp2914
Rp2915
sI1805
I308029615
sI1806
g1
(g2
g3
L6723918491L
tp2916
Rp2917
sI1807
g1
(g2
g3
L8504566116L
tp2918
Rp2919
sI1808
g1
(g2
g3
L4353653463L
tp2920
Rp2921
sI1809
g1
(g2
g3
L8380461871L
tp2922
Rp2923
sI1810
g1
(g2
g3
L4247245341L
tp2924
Rp2925
sI1811
g1
(g2
g3
L4356733443L
tp2926
Rp2927
sI1812
I400259142
sI1813
g1
(g2
g3
L4349313246L
tp2928
Rp2929
sI1814
g1
(g2
g3
L3397278899L
tp2930
Rp2931
sI1815
g1
(g2
g3
L5301875216L
tp2932
Rp2933
sI1816
g1
(g2
g3
L8370376510L
tp2934
Rp2935
sI1817
g1
(g2
g3
L3247543079L
tp2936
Rp2937
sI1818
g1
(g2
g3
L5507502933L
tp2938
Rp2939
sI1819
I115439181
sI1820
g1
(g2
g3
L6666362997L
tp2940
Rp2941
sI1821
I58719061
sI1822
g1
(g2
g3
L3301234934L
tp2942
Rp2943
sI1823
g1
(g2
g3
L5294241453L
tp2944
Rp2945
sI1824
g1
(g2
g3
L5570098228L
tp2946
Rp2947
sI1825
g1
(g2
g3
L9376115441L
tp2948
Rp2949
sI1826
g1
(g2
g3
L4569638279L
tp2950
Rp2951
sI1827
g1
(g2
g3
L3272946670L
tp2952
Rp2953
sI1828
g1
(g2
g3
L2286615604L
tp2954
Rp2955
sI1829
g1
(g2
g3
L2344851317L
tp2956
Rp2957
sI1830
g1
(g2
g3
L2149695961L
tp2958
Rp2959
sI1831
g1
(g2
g3
L4105524810L
tp2960
Rp2961
sI1832
g1
(g2
g3
L2353445587L
tp2962
Rp2963
sI1833
g1
(g2
g3
L6883452119L
tp2964
Rp2965
sI1834
g1
(g2
g3
L2234950444L
tp2966
Rp2967
sI1835
I76809981
sI1836
g1
(g2
g3
L5379298714L
tp2968
Rp2969
sI1837
g1
(g2
g3
L2519464206L
tp2970
Rp2971
sI1838
g1
(g2
g3
L4055194929L
tp2972
Rp2973
sI1839
g1
(g2
g3
L8560754036L
tp2974
Rp2975
sI1840
g1
(g2
g3
L3053288839L
tp2976
Rp2977
sI1841
g1
(g2
g3
L3133873260L
tp2978
Rp2979
sI1842
g1
(g2
g3
L5384266950L
tp2980
Rp2981
sI1843
g1
(g2
g3
L6564790747L
tp2982
Rp2983
sI1844
g1
(g2
g3
L5393654246L
tp2984
Rp2985
sI1845
g1
(g2
g3
L8127933015L
tp2986
Rp2987
sI1846
g1
(g2
g3
L5347057521L
tp2988
Rp2989
sI1847
I72169977
sI1848
g1
(g2
g3
L5095488583L
tp2990
Rp2991
sI1849
g1
(g2
g3
L8396555400L
tp2992
Rp2993
sI1850
g1
(g2
g3
L5627604243L
tp2994
Rp2995
sI1851
g1
(g2
g3
L8537748202L
tp2996
Rp2997
sI1852
g1
(g2
g3
L4199139523L
tp2998
Rp2999
sI1853
g1
(g2
g3
L11815131806L
tp3000
Rp3001
sI1854
g1
(g2
g3
L3295064442L
tp3002
Rp3003
sI1855
g1
(g2
g3
L5483531346L
tp3004
Rp3005
sI1856
g1
(g2
g3
L8541196059L
tp3006
Rp3007
sI1857
g1
(g2
g3
L3247261195L
tp3008
Rp3009
sI1858
g1
(g2
g3
L5325194723L
tp3010
Rp3011
sI1859
g1
(g2
g3
L9072867267L
tp3012
Rp3013
sI1860
g1
(g2
g3
L8532622084L
tp3014
Rp3015
sI1861
I2078422420
sI1862
g1
(g2
g3
L3176770304L
tp3016
Rp3017
sI1863
g1
(g2
g3
L6912027111L
tp3018
Rp3019
sI1864
g1
(g2
g3
L3247937965L
tp3020
Rp3021
sI1865
g1
(g2
g3
L8467610997L
tp3022
Rp3023
sI1866
g1
(g2
g3
L3182294386L
tp3024
Rp3025
sI1867
g1
(g2
g3
L5899047160L
tp3026
Rp3027
sI1868
g1
(g2
g3
L8306635134L
tp3028
Rp3029
sI1869
g1
(g2
g3
L3303053997L
tp3030
Rp3031
sI1870
g1
(g2
g3
L8603260545L
tp3032
Rp3033
sI1871
g1
(g2
g3
L3144585108L
tp3034
Rp3035
sI1872
I558443037
sI1873
g1
(g2
g3
L5173153218L
tp3036
Rp3037
sI1874
g1
(g2
g3
L2193953277L
tp3038
Rp3039
sI1875
I254043777
sI1876
g1
(g2
g3
L11193644013L
tp3040
Rp3041
sI1877
g1
(g2
g3
L2760895723L
tp3042
Rp3043
sI1878
g1
(g2
g3
L4741213467L
tp3044
Rp3045
sI1879
I807932364
sI1880
g1
(g2
g3
L5733800550L
tp3046
Rp3047
sI1881
I226319588
sI1882
g1
(g2
g3
L3940149040L
tp3048
Rp3049
sI1883
g1
(g2
g3
L9052838218L
tp3050
Rp3051
sI1884
g1
(g2
g3
L2210396826L
tp3052
Rp3053
sI1885
g1
(g2
g3
L4181119892L
tp3054
Rp3055
sI1886
I87691707
sI1887
g1
(g2
g3
L2993869175L
tp3056
Rp3057
sI1888
I416150700
sI1889
g1
(g2
g3
L2705141703L
tp3058
Rp3059
sI1890
g1
(g2
g3
L3444586577L
tp3060
Rp3061
sI1891
I707901087
sI1892
g1
(g2
g3
L8087919179L
tp3062
Rp3063
sI1893
g1
(g2
g3
L3743122433L
tp3064
Rp3065
sI1894
g1
(g2
g3
L3488765504L
tp3066
Rp3067
sI1895
I1064004307
sI1896
g1
(g2
g3
L11424783615L
tp3068
Rp3069
sI1897
g1
(g2
g3
L2294715379L
tp3070
Rp3071
sI1898
g1
(g2
g3
L6202405767L
tp3072
Rp3073
sI1899
g1
(g2
g3
L5974916702L
tp3074
Rp3075
sI1900
I60324005
sI1901
g1
(g2
g3
L2927445370L
tp3076
Rp3077
sI1902
g1
(g2
g3
L7238612374L
tp3078
Rp3079
sI1903
g1
(g2
g3
L5645686547L
tp3080
Rp3081
sI1904
g1
(g2
g3
L7885390228L
tp3082
Rp3083
sI1905
g1
(g2
g3
L4870553205L
tp3084
Rp3085
sI1906
I95436540
sI1907
g1
(g2
g3
L10043297414L
tp3086
Rp3087
sI1908
g1
(g2
g3
L9194087829L
tp3088
Rp3089
sI1909
g1
(g2
g3
L6006703373L
tp3090
Rp3091
sI1910
g1
(g2
g3
L6022522987L
tp3092
Rp3093
sI1911
g1
(g2
g3
L2481599805L
tp3094
Rp3095
sI1912
I265756715
sI1913
g1
(g2
g3
L3021616902L
tp3096
Rp3097
sI1914
g1
(g2
g3
L2542742362L
tp3098
Rp3099
sI1915
g1
(g2
g3
L3834887108L
tp3100
Rp3101
sI1916
g1
(g2
g3
L4168523096L
tp3102
Rp3103
sI1917
I1569584377
sI1918
I226034667
sI1919
g1
(g2
g3
L6549543369L
tp3104
Rp3105
sI1920
g1
(g2
g3
L7463582194L
tp3106
Rp3107
sI1921
g1
(g2
g3
L7940646614L
tp3108
Rp3109
sI1922
g1
(g2
g3
L4356733443L
tp3110
Rp3111
sI1923
I215041401
sI1924
g1
(g2
g3
L2346410245L
tp3112
Rp3113
sI1925
g1
(g2
g3
L12064504235L
tp3114
Rp3115
sI1926
g1
(g2
g3
L10235470295L
tp3116
Rp3117
sI1927
g1
(g2
g3
L5072439181L
tp3118
Rp3119
sI1928
g1
(g2
g3
L8457087017L
tp3120
Rp3121
sI1929
g1
(g2
g3
L5412657244L
tp3122
Rp3123
sI1930
g1
(g2
g3
L7497028118L
tp3124
Rp3125
sI1931
g1
(g2
g3
L9296649917L
tp3126
Rp3127
sI1932
g1
(g2
g3
L5587445335L
tp3128
Rp3129
sI1933
g1
(g2
g3
L2192098341L
tp3130
Rp3131
sI1934
g1
(g2
g3
L4891361224L
tp3132
Rp3133
sI1935
g1
(g2
g3
L2472594760L
tp3134
Rp3135
sI1936
I267426356
sI1937
g1
(g2
g3
L2830363495L
tp3136
Rp3137
sI1938
g1
(g2
g3
L2791570944L
tp3138
Rp3139
sI1939
g1
(g2
g3
L5899047160L
tp3140
Rp3141
sI1940
g1
(g2
g3
L4183448942L
tp3142
Rp3143
sI1941
g1
(g2
g3
L3914041640L
tp3144
Rp3145
sI1942
I1865519946
sI1943
I858945933
sI1944
g1
(g2
g3
L10639945893L
tp3146
Rp3147
sI1945
g1
(g2
g3
L4845788093L
tp3148
Rp3149
sI1946
g1
(g2
g3
L10040182614L
tp3150
Rp3151
sI1947
I205933921
sI1948
g1
(g2
g3
L3572696618L
tp3152
Rp3153
sI1949
g1
(g2
g3
L8751019831L
tp3154
Rp3155
sI1950
g1
(g2
g3
L10027419054L
tp3156
Rp3157
sI1951
g1
(g2
g3
L11435810626L
tp3158
Rp3159
sI1952
I485711549
sI1953
g1
(g2
g3
L5124070269L
tp3160
Rp3161
sI1954
g1
(g2
g3
L3913209097L
tp3162
Rp3163
sI1955
g1
(g2
g3
L4418557969L
tp3164
Rp3165
sI1956
g1
(g2
g3
L2516296191L
tp3166
Rp3167
sI1957
g1
(g2
g3
L8869237192L
tp3168
Rp3169
sI1958
g1
(g2
g3
L2582534915L
tp3170
Rp3171
sI1959
g1
(g2
g3
L6033583071L
tp3172
Rp3173
sI1960
g1
(g2
g3
L8238851475L
tp3174
Rp3175
sI1961
g1
(g2
g3
L3416782105L
tp3176
Rp3177
sI1962
I217421736
sI1963
g1
(g2
g3
L5807214594L
tp3178
Rp3179
sI1964
g1
(g2
g3
L6112386843L
tp3180
Rp3181
sI1965
g1
(g2
g3
L3418609257L
tp3182
Rp3183
sI1966
g1
(g2
g3
L6050029834L
tp3184
Rp3185
sI1967
I2050423770
sI1968
g1
(g2
g3
L8660094824L
tp3186
Rp3187
sI1969
g1
(g2
g3
L2533301386L
tp3188
Rp3189
sI1970
g1
(g2
g3
L2152737327L
tp3190
Rp3191
sI1971
g1
(g2
g3
L11343485603L
tp3192
Rp3193
sI1972
g1
(g2
g3
L4592559430L
tp3194
Rp3195
sI1973
I283524919
sI1974
g1
(g2
g3
L8832204554L
tp3196
Rp3197
sI1975
g1
(g2
g3
L5163879207L
tp3198
Rp3199
sI1976
g1
(g2
g3
L4785320648L
tp3200
Rp3201
sI1977
g1
(g2
g3
L9621487891L
tp3202
Rp3203
sI1978
I151312306
sI1979
g1
(g2
g3
L2636129464L
tp3204
Rp3205
sI1980
I299566479
sI1981
I223169394
sI1982
g1
(g2
g3
L7602189456L
tp3206
Rp3207
sI1983
g1
(g2
g3
L3790704438L
tp3208
Rp3209
sI1984
g1
(g2
g3
L5733660628L
tp3210
Rp3211
sI1985
g1
(g2
g3
L8016425665L
tp3212
Rp3213
sI1986
I498978031
sI1987
g1
(g2
g3
L7979622091L
tp3214
Rp3215
sI1988
g1
(g2
g3
L7000808510L
tp3216
Rp3217
sI1989
I270364530
sI1990
g1
(g2
g3
L4662164906L
tp3218
Rp3219
sI1991
I151747428
sI1992
g1
(g2
g3
L4525454916L
tp3220
Rp3221
sI1993
g1
(g2
g3
L5619622157L
tp3222
Rp3223
sI1994
g1
(g2
g3
L3344016667L
tp3224
Rp3225
sI1995
g1
(g2
g3
L9421868077L
tp3226
Rp3227
sI1996
g1
(g2
g3
L3687005433L
tp3228
Rp3229
sI1997
g1
(g2
g3
L2338508280L
tp3230
Rp3231
sI1998
I1497167073
sI1999
g1
(g2
g3
L10041568665L
tp3232
Rp3233
sI2000
g1
(g2
g3
L4886564412L
tp3234
Rp3235
sI2001
g1
(g2
g3
L3747707820L
tp3236
Rp3237
sI2002
g1
(g2
g3
L4001862888L
tp3238
Rp3239
sI2003
g1
(g2
g3
L2220250969L
tp3240
Rp3241
sI2004
I1166847354
sI2005
g1
(g2
g3
L13223372784L
tp3242
Rp3243
sI2006
g1
(g2
g3
L4099432855L
tp3244
Rp3245
sI2007
g1
(g2
g3
L4999975563L
tp3246
Rp3247
sI2008
g1
(g2
g3
L7600713030L
tp3248
Rp3249
sI2009
g1
(g2
g3
L8936286858L
tp3250
Rp3251
sI2010
I804517957
sI2011
I525181144
sI2012
g1
(g2
g3
L5394695690L
tp3252
Rp3253
sI2013
g1
(g2
g3
L9070327363L
tp3254
Rp3255
sI2014
g1
(g2
g3
L2772587954L
tp3256
Rp3257
sI2015
I519489895
sI2016
g1
(g2
g3
L4835264842L
tp3258
Rp3259
sI2017
g1
(g2
g3
L3960663809L
tp3260
Rp3261
sI2018
g1
(g2
g3
L6010366691L
tp3262
Rp3263
sI2019
g1
(g2
g3
L4777050437L
tp3264
Rp3265
sI2020
I337517369
sI2021
I774343481
sI2022
I510675789
sI2023
g1
(g2
g3
L9224135427L
tp3266
Rp3267
sI2024
g1
(g2
g3
L3967678396L
tp3268
Rp3269
sI2025
I350105618
sI2026
g1
(g2
g3
L8830937346L
tp3270
Rp3271
sI2027
I700629639
sI2028
I1800301443
sI2029
g1
(g2
g3
L7299791854L
tp3272
Rp3273
sI2030
g1
(g2
g3
L5772600505L
tp3274
Rp3275
sI2031
I153117082
sI2032
I497011363
sI2033
I59546389
sI2034
I527790762
sI2035
g1
(g2
g3
L4202492062L
tp3276
Rp3277
sI2036
g1
(g2
g3
L3761117771L
tp3278
Rp3279
sI2037
g1
(g2
g3
L9183994513L
tp3280
Rp3281
sI2038
I29461935
sI2039
g1
(g2
g3
L4325969785L
tp3282
Rp3283
sI2040
g1
(g2
g3
L7506210980L
tp3284
Rp3285
sI2041
g1
(g2
g3
L10943636256L
tp3286
Rp3287
sI2042
g1
(g2
g3
L8084276410L
tp3288
Rp3289
sI2043
g1
(g2
g3
L3106830959L
tp3290
Rp3291
sI2044
g1
(g2
g3
L8040917880L
tp3292
Rp3293
sI2045
I218800277
sI2046
g1
(g2
g3
L5975363044L
tp3294
Rp3295
sI2047
g1
(g2
g3
L11034422753L
tp3296
Rp3297
sI2048
g1
(g2
g3
L7061995765L
tp3298
Rp3299
sI2049
g1
(g2
g3
L6497202921L
tp3300
Rp3301
sI2050
g1
(g2
g3
L8550280937L
tp3302
Rp3303
sI2051
I186906643
sI2052
I1350808160
sI2053
g1
(g2
g3
L2576603030L
tp3304
Rp3305
sI2054
g1
(g2
g3
L2685814291L
tp3306
Rp3307
sI2055
g1
(g2
g3
L8749562416L
tp3308
Rp3309
sI2056
I2115212978
sI2057
g1
(g2
g3
L3621150297L
tp3310
Rp3311
sI2058
g1
(g2
g3
L5772750244L
tp3312
Rp3313
sI2059
I1844634632
sI2060
g1
(g2
g3
L9625138420L
tp3314
Rp3315
sI2061
g1
(g2
g3
L3503515043L
tp3316
Rp3317
sI2062
g1
(g2
g3
L8992652766L
tp3318
Rp3319
sI2063
g1
(g2
g3
L5509489942L
tp3320
Rp3321
sI2064
g1
(g2
g3
L13046586125L
tp3322
Rp3323
sI2065
g1
(g2
g3
L8086749050L
tp3324
Rp3325
sI2066
g1
(g2
g3
L5166938085L
tp3326
Rp3327
sI2067
g1
(g2
g3
L9519014717L
tp3328
Rp3329
sI2068
g1
(g2
g3
L8212090643L
tp3330
Rp3331
sI2069
g1
(g2
g3
L6538456769L
tp3332
Rp3333
sI2070
g1
(g2
g3
L10736147695L
tp3334
Rp3335
sI2071
g1
(g2
g3
L4849242149L
tp3336
Rp3337
sI2072
g1
(g2
g3
L10916131976L
tp3338
Rp3339
sI2073
g1
(g2
g3
L6831825319L
tp3340
Rp3341
sI2074
g1
(g2
g3
L8274893824L
tp3342
Rp3343
sI2075
g1
(g2
g3
L8461659719L
tp3344
Rp3345
sI2076
g1
(g2
g3
L5704241452L
tp3346
Rp3347
sI2077
g1
(g2
g3
L7181730343L
tp3348
Rp3349
sI2078
g1
(g2
g3
L2850524666L
tp3350
Rp3351
sI2079
g1
(g2
g3
L4752378690L
tp3352
Rp3353
sI2080
g1
(g2
g3
L5618933644L
tp3354
Rp3355
sI2081
g1
(g2
g3
L8446891244L
tp3356
Rp3357
sI2082
g1
(g2
g3
L2996407987L
tp3358
Rp3359
sI2083
g1
(g2
g3
L3012465419L
tp3360
Rp3361
sI2084
g1
(g2
g3
L7570898944L
tp3362
Rp3363
sI2085
g1
(g2
g3
L5876233012L
tp3364
Rp3365
sI2086
g1
(g2
g3
L7228846562L
tp3366
Rp3367
sI2087
g1
(g2
g3
L2983229656L
tp3368
Rp3369
sI2088
g1
(g2
g3
L2372479741L
tp3370
Rp3371
sI2089
g1
(g2
g3
L4315838279L
tp3372
Rp3373
sI2090
g1
(g2
g3
L2993869175L
tp3374
Rp3375
sI2091
I388292177
sI2092
g1
(g2
g3
L5376731435L
tp3376
Rp3377
sI2093
g1
(g2
g3
L7995581984L
tp3378
Rp3379
sI2094
g1
(g2
g3
L7721578134L
tp3380
Rp3381
sI2095
g1
(g2
g3
L8611111093L
tp3382
Rp3383
sI2096
g1
(g2
g3
L3526448594L
tp3384
Rp3385
sI2097
g1
(g2
g3
L7324561704L
tp3386
Rp3387
sI2098
g1
(g2
g3
L9130301294L
tp3388
Rp3389
sI2099
g1
(g2
g3
L5784047951L
tp3390
Rp3391
sI2100
g1
(g2
g3
L6918943017L
tp3392
Rp3393
sI2101
g1
(g2
g3
L5038442539L
tp3394
Rp3395
sI2102
g1
(g2
g3
L8389307329L
tp3396
Rp3397
sI2103
g1
(g2
g3
L7820211180L
tp3398
Rp3399
sI2104
g1
(g2
g3
L6311753481L
tp3400
Rp3401
sI2105
g1
(g2
g3
L7582604852L
tp3402
Rp3403
sI2106
I534216486
sI2107
g1
(g2
g3
L12708748323L
tp3404
Rp3405
sI2108
I178550123
sI2109
g1
(g2
g3
L6181942499L
tp3406
Rp3407
sI2110
g1
(g2
g3
L3052495242L
tp3408
Rp3409
sI2111
g1
(g2
g3
L7725940168L
tp3410
Rp3411
sI2112
I1428310227
sI2113
g1
(g2
g3
L5731234096L
tp3412
Rp3413
sI2114
g1
(g2
g3
L4752287397L
tp3414
Rp3415
sI2115
I1751300812
sI2116
g1
(g2
g3
L7981362691L
tp3416
Rp3417
sI2117
g1
(g2
g3
L4656581279L
tp3418
Rp3419
sI2118
g1
(g2
g3
L6013379477L
tp3420
Rp3421
sI2119
g1
(g2
g3
L13036502945L
tp3422
Rp3423
sI2120
I179127069
sI2121
g1
(g2
g3
L11424783615L
tp3424
Rp3425
sI2122
g1
(g2
g3
L2148362637L
tp3426
Rp3427
sI2123
g1
(g2
g3
L6189871016L
tp3428
Rp3429
sI2124
g1
(g2
g3
L8616527954L
tp3430
Rp3431
sI2125
g1
(g2
g3
L3223303378L
tp3432
Rp3433
sI2126
g1
(g2
g3
L9415591834L
tp3434
Rp3435
sI2127
g1
(g2
g3
L4254344219L
tp3436
Rp3437
sI2128
g1
(g2
g3
L9883370886L
tp3438
Rp3439
sI2129
g1
(g2
g3
L10003037573L
tp3440
Rp3441
sI2130
g1
(g2
g3
L7595073088L
tp3442
Rp3443
sI2131
g1
(g2
g3
L3108271518L
tp3444
Rp3445
sI2132
I2091078584
sI2133
g1
(g2
g3
L5862626231L
tp3446
Rp3447
sI2134
I1825349061
sI2135
g1
(g2
g3
L8149703474L
tp3448
Rp3449
sI2136
g1
(g2
g3
L6073543970L
tp3450
Rp3451
sI2137
I231456463
sI2138
g1
(g2
g3
L6851402990L
tp3452
Rp3453
sI2139
g1
(g2
g3
L7137002885L
tp3454
Rp3455
sI2140
g1
(g2
g3
L9474999092L
tp3456
Rp3457
sI2141
g1
(g2
g3
L2331816305L
tp3458
Rp3459
sI2142
g1
(g2
g3
L2572654480L
tp3460
Rp3461
sI2143
I272228601
sI2144
g1
(g2
g3
L8555435653L
tp3462
Rp3463
sI2145
g1
(g2
g3
L3396961370L
tp3464
Rp3465
sI2146
g1
(g2
g3
L5122668155L
tp3466
Rp3467
sI2147
g1
(g2
g3
L2601024295L
tp3468
Rp3469
sI2148
g1
(g2
g3
L10849307074L
tp3470
Rp3471
sI2149
g1
(g2
g3
L13685331534L
tp3472
Rp3473
sI2150
I468292791
sI2151
g1
(g2
g3
L8463754498L
tp3474
Rp3475
sI2152
g1
(g2
g3
L2699441885L
tp3476
Rp3477
sI2153
g1
(g2
g3
L3933549281L
tp3478
Rp3479
sI2154
g1
(g2
g3
L5806947297L
tp3480
Rp3481
sI2155
g1
(g2
g3
L9642845007L
tp3482
Rp3483
sI2156
g1
(g2
g3
L5097357726L
tp3484
Rp3485
sI2157
g1
(g2
g3
L3519351932L
tp3486
Rp3487
sI2158
g1
(g2
g3
L2604919772L
tp3488
Rp3489
sI2159
g1
(g2
g3
L6333750959L
tp3490
Rp3491
sI2160
g1
(g2
g3
L3333604911L
tp3492
Rp3493
sI2161
g1
(g2
g3
L5521530113L
tp3494
Rp3495
sI2162
I427832390
sI2163
g1
(g2
g3
L2643508014L
tp3496
Rp3497
sI2164
g1
(g2
g3
L2980561418L
tp3498
Rp3499
sI2165
g1
(g2
g3
L9454086063L
tp3500
Rp3501
sI2166
g1
(g2
g3
L5708563446L
tp3502
Rp3503
sI2167
g1
(g2
g3
L3591544233L
tp3504
Rp3505
sI2168
g1
(g2
g3
L12521582745L
tp3506
Rp3507
sI2169
I347026679
sI2170
I246412496
sI2171
g1
(g2
g3
L2481599805L
tp3508
Rp3509
sI2172
I1506573051
sI2173
g1
(g2
g3
L4903261829L
tp3510
Rp3511
sI2174
I1399117766
sI2175
I265756715
sI2176
g1
(g2
g3
L6948877912L
tp3512
Rp3513
sI2177
g1
(g2
g3
L2871366270L
tp3514
Rp3515
sI2178
g1
(g2
g3
L13429928385L
tp3516
Rp3517
sI2179
g1
(g2
g3
L7873327704L
tp3518
Rp3519
sI2180
g1
(g2
g3
L4246269764L
tp3520
Rp3521
sI2181
I1434753931
sI2182
g1
(g2
g3
L8182780454L
tp3522
Rp3523
sI2183
g1
(g2
g3
L5903719632L
tp3524
Rp3525
sI2184
g1
(g2
g3
L2522073587L
tp3526
Rp3527
sI2185
g1
(g2
g3
L6159352126L
tp3528
Rp3529
sI2186
I452875115
sI2187
g1
(g2
g3
L3885071985L
tp3530
Rp3531
sI2188
g1
(g2
g3
L5981249338L
tp3532
Rp3533
sI2189
I306180765
sI2190
g1
(g2
g3
L3228822569L
tp3534
Rp3535
sI2191
g1
(g2
g3
L3613441434L
tp3536
Rp3537
sI2192
g1
(g2
g3
L10159312416L
tp3538
Rp3539
sI2193
I377371101
sI2194
g1
(g2
g3
L8016373844L
tp3540
Rp3541
sI2195
g1
(g2
g3
L8481612531L
tp3542
Rp3543
sI2196
I241858006
sI2197
I191684963
sI2198
g1
(g2
g3
L12902149745L
tp3544
Rp3545
sI2199
g1
(g2
g3
L7143812991L
tp3546
Rp3547
sI2200
g1
(g2
g3
L4796555267L
tp3548
Rp3549
sI2201
g1
(g2
g3
L10425144806L
tp3550
Rp3551
sI2202
g1
(g2
g3
L8069763330L
tp3552
Rp3553
sI2203
g1
(g2
g3
L4299227016L
tp3554
Rp3555
sI2204
g1
(g2
g3
L5428225532L
tp3556
Rp3557
sI2205
g1
(g2
g3
L6961556221L
tp3558
Rp3559
sI2206
g1
(g2
g3
L5204704187L
tp3560
Rp3561
sI2207
g1
(g2
g3
L2446186051L
tp3562
Rp3563
sI2208
g1
(g2
g3
L5733800550L
tp3564
Rp3565
sI2209
g1
(g2
g3
L8274893824L
tp3566
Rp3567
sI2210
g1
(g2
g3
L8584141894L
tp3568
Rp3569
sI2211
g1
(g2
g3
L3498600400L
tp3570
Rp3571
sI2212
g1
(g2
g3
L13152713384L
tp3572
Rp3573
sI2213
g1
(g2
g3
L3012465419L
tp3574
Rp3575
sI2214
g1
(g2
g3
L5457327333L
tp3576
Rp3577
sI2215
g1
(g2
g3
L10726924076L
tp3578
Rp3579
sI2216
g1
(g2
g3
L7289023174L
tp3580
Rp3581
sI2217
g1
(g2
g3
L3123314819L
tp3582
Rp3583
sI2218
g1
(g2
g3
L4442893075L
tp3584
Rp3585
sI2219
g1
(g2
g3
L3503651977L
tp3586
Rp3587
sI2220
g1
(g2
g3
L3862982739L
tp3588
Rp3589
sI2221
I388292177
sI2222
g1
(g2
g3
L5948238083L
tp3590
Rp3591
sI2223
g1
(g2
g3
L5271015637L
tp3592
Rp3593
sI2224
g1
(g2
g3
L8300477043L
tp3594
Rp3595
sI2225
g1
(g2
g3
L2412894098L
tp3596
Rp3597
sI2226
g1
(g2
g3
L8087919179L
tp3598
Rp3599
sI2227
g1
(g2
g3
L2844750869L
tp3600
Rp3601
sI2228
g1
(g2
g3
L4987665637L
tp3602
Rp3603
sI2229
g1
(g2
g3
L4752287397L
tp3604
Rp3605
sI2230
g1
(g2
g3
L8296935537L
tp3606
Rp3607
sI2231
g1
(g2
g3
L10644134743L
tp3608
Rp3609
sI2232
g1
(g2
g3
L8295244893L
tp3610
Rp3611
sI2233
I434253622
sI2234
g1
(g2
g3
L10286226576L
tp3612
Rp3613
sI2235
g1
(g2
g3
L5525449469L
tp3614
Rp3615
sI2236
g1
(g2
g3
L5112564502L
tp3616
Rp3617
sI2237
I256029843
sI2238
I232018394
sI2239
g1
(g2
g3
L10102495254L
tp3618
Rp3619
sI2240
g1
(g2
g3
L5970331733L
tp3620
Rp3621
sI2241
g1
(g2
g3
L3578495210L
tp3622
Rp3623
sI2242
g1
(g2
g3
L9647023064L
tp3624
Rp3625
sI2243
g1
(g2
g3
L13181161424L
tp3626
Rp3627
sI2244
I268533870
sI2245
g1
(g2
g3
L9175205302L
tp3628
Rp3629
sI2246
g1
(g2
g3
L8296502526L
tp3630
Rp3631
sI2247
g1
(g2
g3
L10260624044L
tp3632
Rp3633
sI2248
g1
(g2
g3
L11649200584L
tp3634
Rp3635
sI2249
g1
(g2
g3
L10207934705L
tp3636
Rp3637
sI2250
g1
(g2
g3
L9426150386L
tp3638
Rp3639
sI2251
g1
(g2
g3
L11396560394L
tp3640
Rp3641
sI2252
g1
(g2
g3
L6636277331L
tp3642
Rp3643
sI2253
g1
(g2
g3
L12247961386L
tp3644
Rp3645
sI2254
I263425930
sI2255
g1
(g2
g3
L7344779788L
tp3646
Rp3647
sI2256
g1
(g2
g3
L8669788712L
tp3648
Rp3649
sI2257
I242298737
sI2258
g1
(g2
g3
L5154881294L
tp3650
Rp3651
sI2259
g1
(g2
g3
L6069415106L
tp3652
Rp3653
sI2260
g1
(g2
g3
L7765043746L
tp3654
Rp3655
sI2261
g1
(g2
g3
L6110358978L
tp3656
Rp3657
sI2262
g1
(g2
g3
L2845121495L
tp3658
Rp3659
sI2263
g1
(g2
g3
L5802194749L
tp3660
Rp3661
sI2264
g1
(g2
g3
L8128768125L
tp3662
Rp3663
sI2265
g1
(g2
g3
L12521582745L
tp3664
Rp3665
sI2266
I381803884
sI2267
I276463375
sI2268
g1
(g2
g3
L2271198997L
tp3666
Rp3667
sI2269
I2870623
sI2270
g1
(g2
g3
L12917093025L
tp3668
Rp3669
sI2271
I263318393
sI2272
g1
(g2
g3
L12230954695L
tp3670
Rp3671
sI2273
g1
(g2
g3
L3885379043L
tp3672
Rp3673
sI2274
g1
(g2
g3
L5615729652L
tp3674
Rp3675
sI2275
g1
(g2
g3
L10789622645L
tp3676
Rp3677
sI2276
g1
(g2
g3
L8697146216L
tp3678
Rp3679
sI2277
g1
(g2
g3
L9657665207L
tp3680
Rp3681
sI2278
I476175010
sI2279
g1
(g2
g3
L3672467075L
tp3682
Rp3683
sI2280
g1
(g2
g3
L5424307661L
tp3684
Rp3685
sI2281
g1
(g2
g3
L6145868556L
tp3686
Rp3687
sI2282
g1
(g2
g3
L8380461871L
tp3688
Rp3689
sI2283
I228308361
sI2284
g1
(g2
g3
L9263342437L
tp3690
Rp3691
sI2285
g1
(g2
g3
L5212425947L
tp3692
Rp3693
sI2286
g1
(g2
g3
L5602551732L
tp3694
Rp3695
sI2287
g1
(g2
g3
L5967891828L
tp3696
Rp3697
sI2288
I560317590
sI2289
g1
(g2
g3
L8296077732L
tp3698
Rp3699
sI2290
g1
(g2
g3
L10891623636L
tp3700
Rp3701
sI2291
g1
(g2
g3
L10303691043L
tp3702
Rp3703
sI2292
g1
(g2
g3
L6666362997L
tp3704
Rp3705
sI2293
g1
(g2
g3
L5570098228L
tp3706
Rp3707
sI2294
g1
(g2
g3
L2447463644L
tp3708
Rp3709
sI2295
g1
(g2
g3
L8209936861L
tp3710
Rp3711
sI2296
g1
(g2
g3
L9355858741L
tp3712
Rp3713
sI2297
g1
(g2
g3
L6189170727L
tp3714
Rp3715
sI2298
g1
(g2
g3
L10796072113L
tp3716
Rp3717
sI2299
g1
(g2
g3
L7746123970L
tp3718
Rp3719
sI2300
g1
(g2
g3
L13334227854L
tp3720
Rp3721
sI2301
g1
(g2
g3
L10759268764L
tp3722
Rp3723
sI2302
g1
(g2
g3
L2632938846L
tp3724
Rp3725
sI2303
g1
(g2
g3
L4560338725L
tp3726
Rp3727
sI2304
g1
(g2
g3
L8457087017L
tp3728
Rp3729
sI2305
g1
(g2
g3
L10740677206L
tp3730
Rp3731
sI2306
g1
(g2
g3
L5412657244L
tp3732
Rp3733
sI2307
I429047364
sI2308
g1
(g2
g3
L6372255663L
tp3734
Rp3735
sI2309
g1
(g2
g3
L10027756985L
tp3736
Rp3737
sI2310
g1
(g2
g3
L11475156625L
tp3738
Rp3739
sI2311
I1466536724
sI2312
g1
(g2
g3
L11140242084L
tp3740
Rp3741
sI2313
g1
(g2
g3
L9608783044L
tp3742
Rp3743
sI2314
g1
(g2
g3
L8059730492L
tp3744
Rp3745
sI2315
g1
(g2
g3
L3921947161L
tp3746
Rp3747
sI2316
g1
(g2
g3
L6778240905L
tp3748
Rp3749
sI2317
g1
(g2
g3
L13917550962L
tp3750
Rp3751
sI2318
g1
(g2
g3
L4891361224L
tp3752
Rp3753
sI2319
g1
(g2
g3
L13958791651L
tp3754
Rp3755
sI2320
g1
(g2
g3
L13030051453L
tp3756
Rp3757
sI2321
g1
(g2
g3
L7405320650L
tp3758
Rp3759
sI2322
g1
(g2
g3
L12549416365L
tp3760
Rp3761
sI2323
I267426356
sI2324
g1
(g2
g3
L12240950675L
tp3762
Rp3763
sI2325
I474158710
sI2326
g1
(g2
g3
L4927462332L
tp3764
Rp3765
sI2327
g1
(g2
g3
L11236292586L
tp3766
Rp3767
sI2328
g1
(g2
g3
L8213992227L
tp3768
Rp3769
sI2329
g1
(g2
g3
L8128684507L
tp3770
Rp3771
sI2330
g1
(g2
g3
L4153269297L
tp3772
Rp3773
sI2331
g1
(g2
g3
L11993643026L
tp3774
Rp3775
sI2332
g1
(g2
g3
L9610965827L
tp3776
Rp3777
sI2333
g1
(g2
g3
L2349405694L
tp3778
Rp3779
sI2334
g1
(g2
g3
L2895481032L
tp3780
Rp3781
sI2335
g1
(g2
g3
L4205464310L
tp3782
Rp3783
sI2336
I858945933
sI2337
g1
(g2
g3
L11048236784L
tp3784
Rp3785
sI2338
g1
(g2
g3
L12416930303L
tp3786
Rp3787
sI2339
I244370497
sI2340
g1
(g2
g3
L5726022229L
tp3788
Rp3789
sI2341
g1
(g2
g3
L5013323697L
tp3790
Rp3791
sI2342
g1
(g2
g3
L9419021608L
tp3792
Rp3793
sI2343
g1
(g2
g3
L2365662619L
tp3794
Rp3795
sI2344
g1
(g2
g3
L10051062483L
tp3796
Rp3797
sI2345
g1
(g2
g3
L9633966544L
tp3798
Rp3799
sI2346
I1354857408
sI2347
g1
(g2
g3
L6033583071L
tp3800
Rp3801
sI2348
I1732276605
sI2349
g1
(g2
g3
L2498375715L
tp3802
Rp3803
sI2350
g1
(g2
g3
L3637819434L
tp3804
Rp3805
sI2351
I215905516
sI2352
g1
(g2
g3
L4556029047L
tp3806
Rp3807
sI2353
g1
(g2
g3
L8264009534L
tp3808
Rp3809
sI2354
g1
(g2
g3
L5461713620L
tp3810
Rp3811
sI2355
g1
(g2
g3
L4469159421L
tp3812
Rp3813
sI2356
g1
(g2
g3
L5572586481L
tp3814
Rp3815
sI2357
g1
(g2
g3
L9625138420L
tp3816
Rp3817
sI2358
g1
(g2
g3
L3225883175L
tp3818
Rp3819
sI2359
I851610897
sI2360
g1
(g2
g3
L5813328154L
tp3820
Rp3821
sI2361
I442879303
sI2362
g1
(g2
g3
L6105975245L
tp3822
Rp3823
sI2363
g1
(g2
g3
L4132303953L
tp3824
Rp3825
sI2364
g1
(g2
g3
L6191232325L
tp3826
Rp3827
sI2365
g1
(g2
g3
L7227286610L
tp3828
Rp3829
sI2366
g1
(g2
g3
L3132014983L
tp3830
Rp3831
sI2367
g1
(g2
g3
L4020270292L
tp3832
Rp3833
sI2368
g1
(g2
g3
L2383824088L
tp3834
Rp3835
sI2369
g1
(g2
g3
L7442728616L
tp3836
Rp3837
sI2370
g1
(g2
g3
L7295701232L
tp3838
Rp3839
sI2371
I2118922555
sI2372
g1
(g2
g3
L5332686664L
tp3840
Rp3841
sI2373
g1
(g2
g3
L5376627831L
tp3842
Rp3843
sI2374
I2072169564
sI2375
g1
(g2
g3
L7227379600L
tp3844
Rp3845
sI2376
g1
(g2
g3
L8240514346L
tp3846
Rp3847
sI2377
g1
(g2
g3
L4869481647L
tp3848
Rp3849
sI2378
g1
(g2
g3
L5461241765L
tp3850
Rp3851
sI2379
g1
(g2
g3
L3419840972L
tp3852
Rp3853
sI2380
I1142023403
sI2381
g1
(g2
g3
L3565026427L
tp3854
Rp3855
sI2382
g1
(g2
g3
L3792439031L
tp3856
Rp3857
sI2383
g1
(g2
g3
L7507137230L
tp3858
Rp3859
sI2384
g1
(g2
g3
L7544055936L
tp3860
Rp3861
sI2385
g1
(g2
g3
L2497652638L
tp3862
Rp3863
sI2386
g1
(g2
g3
L3185582231L
tp3864
Rp3865
sI2387
g1
(g2
g3
L3153263615L
tp3866
Rp3867
sI2388
g1
(g2
g3
L5572525976L
tp3868
Rp3869
sI2389
g1
(g2
g3
L4127110798L
tp3870
Rp3871
sI2390
I260864659
sI2391
I1275865656
sI2392
g1
(g2
g3
L3159418114L
tp3872
Rp3873
sI2393
I468089862
sI2394
g1
(g2
g3
L7290174246L
tp3874
Rp3875
sI2395
g1
(g2
g3
L11633106936L
tp3876
Rp3877
sI2396
g1
(g2
g3
L11432947106L
tp3878
Rp3879
sI2397
g1
(g2
g3
L2736625808L
tp3880
Rp3881
sI2398
I2068721324
sI2399
g1
(g2
g3
L5359474421L
tp3882
Rp3883
sI2400
I186076655
sI2401
g1
(g2
g3
L5354804952L
tp3884
Rp3885
sI2402
g1
(g2
g3
L5617974246L
tp3886
Rp3887
sI2403
g1
(g2
g3
L3568740904L
tp3888
Rp3889
sI2404
g1
(g2
g3
L8429097854L
tp3890
Rp3891
sI2405
g1
(g2
g3
L5696215756L
tp3892
Rp3893
sI2406
I16070970
sI2407
g1
(g2
g3
L3364299684L
tp3894
Rp3895
sI2408
g1
(g2
g3
L9179504839L
tp3896
Rp3897
sI2409
g1
(g2
g3
L5497376227L
tp3898
Rp3899
sI2410
g1
(g2
g3
L4253651109L
tp3900
Rp3901
sI2411
g1
(g2
g3
L4990090467L
tp3902
Rp3903
sI2412
g1
(g2
g3
L2897145262L
tp3904
Rp3905
sI2413
I256029843
sI2414
g1
(g2
g3
L2272573061L
tp3906
Rp3907
sI2415
g1
(g2
g3
L8016694085L
tp3908
Rp3909
sI2416
I474794259
sI2417
g1
(g2
g3
L4612929711L
tp3910
Rp3911
sI2418
g1
(g2
g3
L6480504033L
tp3912
Rp3913
sI2419
g1
(g2
g3
L5501579674L
tp3914
Rp3915
sI2420
g1
(g2
g3
L2302258181L
tp3916
Rp3917
sI2421
g1
(g2
g3
L7839576940L
tp3918
Rp3919
sI2422
I430933926
sI2423
g1
(g2
g3
L11934225586L
tp3920
Rp3921
sI2424
g1
(g2
g3
L4670788753L
tp3922
Rp3923
sI2425
g1
(g2
g3
L6138129669L
tp3924
Rp3925
sI2426
g1
(g2
g3
L12571990985L
tp3926
Rp3927
sI2427
g1
(g2
g3
L7168608694L
tp3928
Rp3929
sI2428
g1
(g2
g3
L5091500189L
tp3930
Rp3931
sI2429
I496729298
sI2430
g1
(g2
g3
L5947777949L
tp3932
Rp3933
sI2431
g1
(g2
g3
L5275365247L
tp3934
Rp3935
sI2432
I113710700
sI2433
g1
(g2
g3
L3974622162L
tp3936
Rp3937
sI2434
g1
(g2
g3
L9768222806L
tp3938
Rp3939
sI2435
g1
(g2
g3
L13939480873L
tp3940
Rp3941
sI2436
I241045009
sI2437
g1
(g2
g3
L9211735851L
tp3942
Rp3943
sI2438
g1
(g2
g3
L5307849017L
tp3944
Rp3945
sI2439
I217354056
sI2440
g1
(g2
g3
L3218885298L
tp3946
Rp3947
sI2441
I267397511
sI2442
g1
(g2
g3
L2481966057L
tp3948
Rp3949
sI2443
g1
(g2
g3
L9224885663L
tp3950
Rp3951
sI2444
g1
(g2
g3
L10309278753L
tp3952
Rp3953
sI2445
g1
(g2
g3
L9323186432L
tp3954
Rp3955
sI2446
g1
(g2
g3
L7744888650L
tp3956
Rp3957
sI2447
g1
(g2
g3
L9625286031L
tp3958
Rp3959
sI2448
g1
(g2
g3
L7295472754L
tp3960
Rp3961
sI2449
g1
(g2
g3
L5029659533L
tp3962
Rp3963
sI2450
g1
(g2
g3
L8160871279L
tp3964
Rp3965
sI2451
g1
(g2
g3
L4431936146L
tp3966
Rp3967
sI2452
g1
(g2
g3
L4637166880L
tp3968
Rp3969
sI2453
g1
(g2
g3
L8058077040L
tp3970
Rp3971
sI2454
g1
(g2
g3
L5858556827L
tp3972
Rp3973
sI2455
g1
(g2
g3
L7305852212L
tp3974
Rp3975
sI2456
g1
(g2
g3
L2396023001L
tp3976
Rp3977
sI2457
I2133257227
sI2458
g1
(g2
g3
L2738672866L
tp3978
Rp3979
sI2459
g1
(g2
g3
L4041875429L
tp3980
Rp3981
sI2460
I117886399
sI2461
I2074497251
sI2462
g1
(g2
g3
L8565252365L
tp3982
Rp3983
sI2463
g1
(g2
g3
L7077524051L
tp3984
Rp3985
sI2464
g1
(g2
g3
L13679612965L
tp3986
Rp3987
sI2465
g1
(g2
g3
L7538832580L
tp3988
Rp3989
sI2466
g1
(g2
g3
L7126938857L
tp3990
Rp3991
sI2467
g1
(g2
g3
L5097602208L
tp3992
Rp3993
sI2468
g1
(g2
g3
L2645908003L
tp3994
Rp3995
sI2469
g1
(g2
g3
L6822435815L
tp3996
Rp3997
sI2470
g1
(g2
g3
L7101459691L
tp3998
Rp3999
sI2471
g1
(g2
g3
L2211564064L
tp4000
Rp4001
sI2472
g1
(g2
g3
L10509097695L
tp4002
Rp4003
sI2473
g1
(g2
g3
L3779593686L
tp4004
Rp4005
sI2474
I48090599
sI2475
g1
(g2
g3
L8298876213L
tp4006
Rp4007
sI2476
g1
(g2
g3
L3318941627L
tp4008
Rp4009
sI2477
g1
(g2
g3
L8027267935L
tp4010
Rp4011
sI2478
g1
(g2
g3
L6687366863L
tp4012
Rp4013
sI2479
g1
(g2
g3
L6695036101L
tp4014
Rp4015
sI2480
g1
(g2
g3
L5634915230L
tp4016
Rp4017
sI2481
I17494634
sI2482
g1
(g2
g3
L6165161934L
tp4018
Rp4019
sI2483
g1
(g2
g3
L2711414771L
tp4020
Rp4021
sI2484
g1
(g2
g3
L9143864070L
tp4022
Rp4023
sI2485
g1
(g2
g3
L9691714691L
tp4024
Rp4025
sI2486
g1
(g2
g3
L8026936265L
tp4026
Rp4027
sI2487
g1
(g2
g3
L7656399536L
tp4028
Rp4029
sI2488
g1
(g2
g3
L3834313701L
tp4030
Rp4031
sI2489
g1
(g2
g3
L2308106346L
tp4032
Rp4033
sI2490
g1
(g2
g3
L5914882359L
tp4034
Rp4035
sI2491
g1
(g2
g3
L2884161704L
tp4036
Rp4037
sI2492
g1
(g2
g3
L7282986530L
tp4038
Rp4039
sI2493
I1864901936
sI2494
I221832756
sI2495
g1
(g2
g3
L7022431467L
tp4040
Rp4041
sI2496
g1
(g2
g3
L8527897901L
tp4042
Rp4043
sI2497
g1
(g2
g3
L6763337941L
tp4044
Rp4045
sI2498
g1
(g2
g3
L2360586053L
tp4046
Rp4047
sI2499
g1
(g2
g3
L6478672655L
tp4048
Rp4049
sI2500
g1
(g2
g3
L2766660672L
tp4050
Rp4051
sI2501
g1
(g2
g3
L5032324949L
tp4052
Rp4053
sI2502
g1
(g2
g3
L3106830959L
tp4054
Rp4055
sI2503
I1668116260
sI2504
I218800277
sI2505
g1
(g2
g3
L7061995765L
tp4056
Rp4057
sI2506
g1
(g2
g3
L8081025619L
tp4058
Rp4059
sI2507
g1
(g2
g3
L3201709272L
tp4060
Rp4061
sI2508
g1
(g2
g3
L3985803925L
tp4062
Rp4063
sI2509
g1
(g2
g3
L3503515043L
tp4064
Rp4065
sI2510
g1
(g2
g3
L2895636280L
tp4066
Rp4067
sI2511
g1
(g2
g3
L4464398139L
tp4068
Rp4069
sI2512
I10699809
sI2513
g1
(g2
g3
L3127280151L
tp4070
Rp4071
sI2514
g1
(g2
g3
L12143523355L
tp4072
Rp4073
sI2515
g1
(g2
g3
L4099536913L
tp4074
Rp4075
sI2516
g1
(g2
g3
L3794471673L
tp4076
Rp4077
sI2517
g1
(g2
g3
L6831825319L
tp4078
Rp4079
sI2518
g1
(g2
g3
L6023375892L
tp4080
Rp4081
sI2519
g1
(g2
g3
L2788991361L
tp4082
Rp4083
sI2520
I497119200
sI2521
g1
(g2
g3
L7748626574L
tp4084
Rp4085
sI2522
g1
(g2
g3
L5097578090L
tp4086
Rp4087
sI2523
g1
(g2
g3
L8216412689L
tp4088
Rp4089
sI2524
g1
(g2
g3
L8397419126L
tp4090
Rp4091
sI2525
g1
(g2
g3
L2175083701L
tp4092
Rp4093
sI2526
g1
(g2
g3
L3573123847L
tp4094
Rp4095
sI2527
I113139052
sI2528
g1
(g2
g3
L6905741175L
tp4096
Rp4097
sI2529
I331526301
sI2530
g1
(g2
g3
L5595122987L
tp4098
Rp4099
sI2531
g1
(g2
g3
L9668234300L
tp4100
Rp4101
sI2532
g1
(g2
g3
L3989807455L
tp4102
Rp4103
sI2533
g1
(g2
g3
L6982811527L
tp4104
Rp4105
sI2534
I299921580
sI2535
g1
(g2
g3
L10037964346L
tp4106
Rp4107
sI2536
g1
(g2
g3
L4366470255L
tp4108
Rp4109
sI2537
g1
(g2
g3
L9662392313L
tp4110
Rp4111
sI2538
I178550123
sI2539
g1
(g2
g3
L4614651532L
tp4112
Rp4113
sI2540
I1488128055
sI2541
g1
(g2
g3
L7425838898L
tp4114
Rp4115
sI2542
I332010777
sI2543
g1
(g2
g3
L3866879767L
tp4116
Rp4117
sI2544
g1
(g2
g3
L8603241283L
tp4118
Rp4119
sI2545
g1
(g2
g3
L7451412138L
tp4120
Rp4121
sI2546
g1
(g2
g3
L3223303378L
tp4122
Rp4123
sI2547
g1
(g2
g3
L2466223096L
tp4124
Rp4125
sI2548
g1
(g2
g3
L6968172336L
tp4126
Rp4127
sI2549
g1
(g2
g3
L4657206345L
tp4128
Rp4129
sI2550
g1
(g2
g3
L2529456406L
tp4130
Rp4131
sI2551
g1
(g2
g3
L4131890926L
tp4132
Rp4133
sI2552
I105545152
sI2553
g1
(g2
g3
L3108271518L
tp4134
Rp4135
sI2554
g1
(g2
g3
L6803993994L
tp4136
Rp4137
sI2555
g1
(g2
g3
L4869877133L
tp4138
Rp4139
sI2556
g1
(g2
g3
L7000875593L
tp4140
Rp4141
sI2557
I268793631
sI2558
g1
(g2
g3
L6281203011L
tp4142
Rp4143
sI2559
g1
(g2
g3
L8555435653L
tp4144
Rp4145
sI2560
g1
(g2
g3
L7304737724L
tp4146
Rp4147
sI2561
g1
(g2
g3
L4668397280L
tp4148
Rp4149
sI2562
g1
(g2
g3
L6263503498L
tp4150
Rp4151
sI2563
I4727579
sI2564
g1
(g2
g3
L4231087348L
tp4152
Rp4153
sI2565
g1
(g2
g3
L8016347039L
tp4154
Rp4155
sI2566
g1
(g2
g3
L3933549281L
tp4156
Rp4157
sI2567
I312478192
sI2568
g1
(g2
g3
L5500723817L
tp4158
Rp4159
sI2569
g1
(g2
g3
L5436840247L
tp4160
Rp4161
sI2570
g1
(g2
g3
L5097357726L
tp4162
Rp4163
sI2571
g1
(g2
g3
L3519351932L
tp4164
Rp4165
sI2572
g1
(g2
g3
L6700434597L
tp4166
Rp4167
sI2573
g1
(g2
g3
L5951222184L
tp4168
Rp4169
sI2574
g1
(g2
g3
L9211735851L
tp4170
Rp4171
sI2575
g1
(g2
g3
L3601070567L
tp4172
Rp4173
sI2576
g1
(g2
g3
L10365632906L
tp4174
Rp4175
sI2577
g1
(g2
g3
L6141295677L
tp4176
Rp4177
sI2578
g1
(g2
g3
L3714542094L
tp4178
Rp4179
sI2579
I514846389
sI2580
g1
(g2
g3
L3849576037L
tp4180
Rp4181
sI2581
g1
(g2
g3
L10037965805L
tp4182
Rp4183
sI2582
g1
(g2
g3
L9126948751L
tp4184
Rp4185
sI2583
g1
(g2
g3
L4206693045L
tp4186
Rp4187
sI2584
g1
(g2
g3
L9679622415L
tp4188
Rp4189
sI2585
g1
(g2
g3
L2522073587L
tp4190
Rp4191
sI2586
g1
(g2
g3
L6284633432L
tp4192
Rp4193
sI2587
g1
(g2
g3
L6690673761L
tp4194
Rp4195
sI2588
g1
(g2
g3
L2998644526L
tp4196
Rp4197
sI2589
g1
(g2
g3
L3228822569L
tp4198
Rp4199
sI2590
g1
(g2
g3
L2908429766L
tp4200
Rp4201
sI2591
g1
(g2
g3
L9182640903L
tp4202
Rp4203
sI2592
g1
(g2
g3
L2774844209L
tp4204
Rp4205
sI2593
g1
(g2
g3
L6793307433L
tp4206
Rp4207
sI2594
g1
(g2
g3
L5751849394L
tp4208
Rp4209
sI2595
g1
(g2
g3
L5333586074L
tp4210
Rp4211
sI2596
g1
(g2
g3
L7131956411L
tp4212
Rp4213
sI2597
g1
(g2
g3
L7251798544L
tp4214
Rp4215
sI2598
I672785768
sI2599
g1
(g2
g3
L4086550156L
tp4216
Rp4217
sI2600
g1
(g2
g3
L8481612531L
tp4218
Rp4219
sI2601
g1
(g2
g3
L2581271719L
tp4220
Rp4221
sI2602
g1
(g2
g3
L6245365944L
tp4222
Rp4223
sI2603
g1
(g2
g3
L6318396856L
tp4224
Rp4225
sI2604
g1
(g2
g3
L4456456094L
tp4226
Rp4227
sI2605
g1
(g2
g3
L6900244298L
tp4228
Rp4229
sI2606
g1
(g2
g3
L2560326434L
tp4230
Rp4231
sI2607
g1
(g2
g3
L7421415564L
tp4232
Rp4233
sI2608
g1
(g2
g3
L8355145262L
tp4234
Rp4235
sI2609
g1
(g2
g3
L9119192900L
tp4236
Rp4237
sI2610
g1
(g2
g3
L8606849848L
tp4238
Rp4239
sI2611
I634012903
sI2612
g1
(g2
g3
L7273598312L
tp4240
Rp4241
sI2613
g1
(g2
g3
L3105794828L
tp4242
Rp4243
sI2614
I270724601
sI2615
g1
(g2
g3
L7710480038L
tp4244
Rp4245
sI2616
g1
(g2
g3
L9208232125L
tp4246
Rp4247
sI2617
g1
(g2
g3
L9301515303L
tp4248
Rp4249
sI2618
g1
(g2
g3
L6245335124L
tp4250
Rp4251
sI2619
g1
(g2
g3
L3917684486L
tp4252
Rp4253
sI2620
g1
(g2
g3
L7914905340L
tp4254
Rp4255
sI2621
g1
(g2
g3
L8746431829L
tp4256
Rp4257
sI2622
I443030618
sI2623
g1
(g2
g3
L2991869222L
tp4258
Rp4259
sI2624
g1
(g2
g3
L8375870801L
tp4260
Rp4261
sI2625
g1
(g2
g3
L6478672655L
tp4262
Rp4263
sI2626
g1
(g2
g3
L3257938973L
tp4264
Rp4265
sI2627
g1
(g2
g3
L4618196236L
tp4266
Rp4267
sI2628
I1594505852
sI2629
g1
(g2
g3
L5399542914L
tp4268
Rp4269
sI2630
g1
(g2
g3
L2173756672L
tp4270
Rp4271
sI2631
g1
(g2
g3
L7797877508L
tp4272
Rp4273
sI2632
g1
(g2
g3
L7379903342L
tp4274
Rp4275
sI2633
g1
(g2
g3
L8399326910L
tp4276
Rp4277
sI2634
I1905205781
sI2635
I224572171
sI2636
g1
(g2
g3
L13224633845L
tp4278
Rp4279
sI2637
g1
(g2
g3
L3027435520L
tp4280
Rp4281
sI2638
g1
(g2
g3
L12494194235L
tp4282
Rp4283
sI2639
g1
(g2
g3
L3820669551L
tp4284
Rp4285
sI2640
g1
(g2
g3
L4583645562L
tp4286
Rp4287
sI2641
g1
(g2
g3
L3914097846L
tp4288
Rp4289
sI2642
g1
(g2
g3
L6868243683L
tp4290
Rp4291
sI2643
g1
(g2
g3
L4797319711L
tp4292
Rp4293
sI2644
g1
(g2
g3
L4825589807L
tp4294
Rp4295
sI2645
g1
(g2
g3
L3295064442L
tp4296
Rp4297
sI2646
g1
(g2
g3
L2969564876L
tp4298
Rp4299
sI2647
g1
(g2
g3
L7215814388L
tp4300
Rp4301
sI2648
g1
(g2
g3
L4257204250L
tp4302
Rp4303
sI2649
I445261634
sI2650
g1
(g2
g3
L7405320650L
tp4304
Rp4305
sI2651
I240728021
sI2652
g1
(g2
g3
L9072867267L
tp4306
Rp4307
sI2653
g1
(g2
g3
L9676660999L
tp4308
Rp4309
sI2654
g1
(g2
g3
L8503599583L
tp4310
Rp4311
sI2655
g1
(g2
g3
L4845788093L
tp4312
Rp4313
sI2656
I1732276605
sI2657
I308472191
sI2658
g1
(g2
g3
L7571120338L
tp4314
Rp4315
sI2659
g1
(g2
g3
L7143812991L
tp4316
Rp4317
sI2660
g1
(g2
g3
L4959748239L
tp4318
Rp4319
sI2661
g1
(g2
g3
L2459975723L
tp4320
Rp4321
sI2662
g1
(g2
g3
L5428225532L
tp4322
Rp4323
sI2663
g1
(g2
g3
L3701557939L
tp4324
Rp4325
sI2664
g1
(g2
g3
L6415752099L
tp4326
Rp4327
sI2665
g1
(g2
g3
L9414022752L
tp4328
Rp4329
sI2666
g1
(g2
g3
L6778146246L
tp4330
Rp4331
sI2667
g1
(g2
g3
L5733800550L
tp4332
Rp4333
sI2668
g1
(g2
g3
L4949622209L
tp4334
Rp4335
sI2669
g1
(g2
g3
L6332346421L
tp4336
Rp4337
sI2670
g1
(g2
g3
L8527391041L
tp4338
Rp4339
sI2671
g1
(g2
g3
L13597867313L
tp4340
Rp4341
sI2672
g1
(g2
g3
L5870853045L
tp4342
Rp4343
sI2673
g1
(g2
g3
L7004127206L
tp4344
Rp4345
sI2674
I87691707
sI2675
g1
(g2
g3
L3186051616L
tp4346
Rp4347
sI2676
g1
(g2
g3
L13955850661L
tp4348
Rp4349
sI2677
g1
(g2
g3
L5581616117L
tp4350
Rp4351
sI2678
g1
(g2
g3
L5690580847L
tp4352
Rp4353
sI2679
I415427402
sI2680
I909736002
sI2681
g1
(g2
g3
L8450592834L
tp4354
Rp4355
sI2682
g1
(g2
g3
L3224198865L
tp4356
Rp4357
sI2683
I24422571
sI2684
g1
(g2
g3
L6995122899L
tp4358
Rp4359
sI2685
g1
(g2
g3
L3480426118L
tp4360
Rp4361
sI2686
g1
(g2
g3
L3385797006L
tp4362
Rp4363
sI2687
g1
(g2
g3
L9186407414L
tp4364
Rp4365
sI2688
g1
(g2
g3
L3364299684L
tp4366
Rp4367
sI2689
g1
(g2
g3
L7228222032L
tp4368
Rp4369
sI2690
g1
(g2
g3
L3498281634L
tp4370
Rp4371
sI2691
g1
(g2
g3
L4990090467L
tp4372
Rp4373
sI2692
g1
(g2
g3
L8106063517L
tp4374
Rp4375
sI2693
g1
(g2
g3
L5075830719L
tp4376
Rp4377
sI2694
g1
(g2
g3
L11934225586L
tp4378
Rp4379
sI2695
g1
(g2
g3
L9474999092L
tp4380
Rp4381
sI2696
g1
(g2
g3
L8527859760L
tp4382
Rp4383
sI2697
I523496185
sI2698
g1
(g2
g3
L6348803963L
tp4384
Rp4385
sI2699
g1
(g2
g3
L8329385542L
tp4386
Rp4387
sI2700
g1
(g2
g3
L5777278903L
tp4388
Rp4389
sI2701
g1
(g2
g3
L6547471637L
tp4390
Rp4391
sI2702
g1
(g2
g3
L3578472635L
tp4392
Rp4393
sI2703
g1
(g2
g3
L11335897604L
tp4394
Rp4395
sI2704
g1
(g2
g3
L3218885298L
tp4396
Rp4397
sI2705
I1970333665
sI2706
g1
(g2
g3
L8523423275L
tp4398
Rp4399
sI2707
g1
(g2
g3
L5049945170L
tp4400
Rp4401
sI2708
g1
(g2
g3
L9497094299L
tp4402
Rp4403
sI2709
g1
(g2
g3
L7462396230L
tp4404
Rp4405
sI2710
I312326981
sI2711
g1
(g2
g3
L8642129607L
tp4406
Rp4407
sI2712
g1
(g2
g3
L11963313655L
tp4408
Rp4409
sI2713
I2145757065
sI2714
g1
(g2
g3
L8523610290L
tp4410
Rp4411
sI2715
g1
(g2
g3
L2645908003L
tp4412
Rp4413
sI2716
g1
(g2
g3
L4876596571L
tp4414
Rp4415
sI2717
g1
(g2
g3
L8570282631L
tp4416
Rp4417
sI2718
g1
(g2
g3
L5424307661L
tp4418
Rp4419
sI2719
g1
(g2
g3
L2666702776L
tp4420
Rp4421
sI2720
g1
(g2
g3
L5354174992L
tp4422
Rp4423
sI2721
g1
(g2
g3
L5755815104L
tp4424
Rp4425
sI2722
g1
(g2
g3
L2900304521L
tp4426
Rp4427
sI2723
I417231636
sI2724
g1
(g2
g3
L6129931122L
tp4428
Rp4429
sI2725
g1
(g2
g3
L7460236698L
tp4430
Rp4431
sI2726
g1
(g2
g3
L8405367726L
tp4432
Rp4433
sI2727
g1
(g2
g3
L2321841413L
tp4434
Rp4435
sI2728
g1
(g2
g3
L6236532814L
tp4436
Rp4437
sI2729
g1
(g2
g3
L5586673002L
tp4438
Rp4439
sI2730
g1
(g2
g3
L5148359101L
tp4440
Rp4441
sI2731
g1
(g2
g3
L13398252455L
tp4442
Rp4443
sI2732
g1
(g2
g3
L3990440272L
tp4444
Rp4445
sI2733
g1
(g2
g3
L6823014089L
tp4446
Rp4447
sI2734
g1
(g2
g3
L2898192478L
tp4448
Rp4449
sI2735
g1
(g2
g3
L7058991267L
tp4450
Rp4451
sI2736
g1
(g2
g3
L3401411541L
tp4452
Rp4453
sI2737
g1
(g2
g3
L2360586053L
tp4454
Rp4455
sI2738
g1
(g2
g3
L8457087017L
tp4456
Rp4457
sI2739
g1
(g2
g3
L3663595401L
tp4458
Rp4459
sI2740
g1
(g2
g3
L11242113683L
tp4460
Rp4461
sI2741
g1
(g2
g3
L4735434266L
tp4462
Rp4463
sI2742
g1
(g2
g3
L5350734066L
tp4464
Rp4465
sI2743
g1
(g2
g3
L4774015268L
tp4466
Rp4467
sI2744
g1
(g2
g3
L3862777029L
tp4468
Rp4469
sI2745
g1
(g2
g3
L6913346511L
tp4470
Rp4471
sI2746
I235255099
sI2747
g1
(g2
g3
L2814679948L
tp4472
Rp4473
sI2748
g1
(g2
g3
L8571214747L
tp4474
Rp4475
sI2749
I742333368
sI2750
I8640890
sI2751
g1
(g2
g3
L2833905965L
tp4476
Rp4477
sI2752
g1
(g2
g3
L5160625411L
tp4478
Rp4479
sI2753
g1
(g2
g3
L5152891465L
tp4480
Rp4481
sI2754
g1
(g2
g3
L9264779855L
tp4482
Rp4483
sI2755
g1
(g2
g3
L4313326523L
tp4484
Rp4485
sI2756
g1
(g2
g3
L6515479007L
tp4486
Rp4487
sI2757
g1
(g2
g3
L3590756586L
tp4488
Rp4489
sI2758
g1
(g2
g3
L9388641383L
tp4490
Rp4491
sI2759
g1
(g2
g3
L5714289029L
tp4492
Rp4493
sI2760
g1
(g2
g3
L7046238863L
tp4494
Rp4495
sI2761
g1
(g2
g3
L5327959569L
tp4496
Rp4497
sI2762
g1
(g2
g3
L6748341657L
tp4498
Rp4499
sI2763
g1
(g2
g3
L6951766171L
tp4500
Rp4501
sI2764
g1
(g2
g3
L10917566566L
tp4502
Rp4503
sI2765
g1
(g2
g3
L2270132061L
tp4504
Rp4505
sI2766
g1
(g2
g3
L9441891045L
tp4506
Rp4507
sI2767
g1
(g2
g3
L7963059022L
tp4508
Rp4509
sI2768
g1
(g2
g3
L3447362128L
tp4510
Rp4511
sI2769
g1
(g2
g3
L5972310692L
tp4512
Rp4513
sI2770
g1
(g2
g3
L3733464063L
tp4514
Rp4515
sI2771
g1
(g2
g3
L7895054464L
tp4516
Rp4517
sI2772
g1
(g2
g3
L3798846428L
tp4518
Rp4519
sI2773
g1
(g2
g3
L6122404517L
tp4520
Rp4521
sI2774
g1
(g2
g3
L7201945168L
tp4522
Rp4523
sI2775
g1
(g2
g3
L4959250736L
tp4524
Rp4525
sI2776
g1
(g2
g3
L6860689589L
tp4526
Rp4527
sI2777
I1651826620
sI2778
g1
(g2
g3
L3384535805L
tp4528
Rp4529
sI2779
g1
(g2
g3
L4150318328L
tp4530
Rp4531
sI2780
g1
(g2
g3
L8432706261L
tp4532
Rp4533
sI2781
g1
(g2
g3
L9536821563L
tp4534
Rp4535
sI2782
g1
(g2
g3
L12736367673L
tp4536
Rp4537
sI2783
g1
(g2
g3
L8620515815L
tp4538
Rp4539
sI2784
g1
(g2
g3
L3856912072L
tp4540
Rp4541
sI2785
g1
(g2
g3
L2306764195L
tp4542
Rp4543
sI2786
I384349382
sI2787
g1
(g2
g3
L5302578465L
tp4544
Rp4545
sI2788
g1
(g2
g3
L2515413836L
tp4546
Rp4547
sI2789
g1
(g2
g3
L8014997778L
tp4548
Rp4549
sI2790
g1
(g2
g3
L4866689024L
tp4550
Rp4551
sI2791
g1
(g2
g3
L12567508404L
tp4552
Rp4553
sI2792
g1
(g2
g3
L9347788562L
tp4554
Rp4555
sI2793
g1
(g2
g3
L5733660628L
tp4556
Rp4557
sI2794
g1
(g2
g3
L7449114916L
tp4558
Rp4559
sI2795
g1
(g2
g3
L5779056252L
tp4560
Rp4561
sI2796
g1
(g2
g3
L6063640346L
tp4562
Rp4563
sI2797
g1
(g2
g3
L7013213467L
tp4564
Rp4565
sI2798
I509846644
sI2799
g1
(g2
g3
L3984659046L
tp4566
Rp4567
sI2800
g1
(g2
g3
L2936696102L
tp4568
Rp4569
sI2801
g1
(g2
g3
L9316829427L
tp4570
Rp4571
sI2802
g1
(g2
g3
L9664343383L
tp4572
Rp4573
sI2803
g1
(g2
g3
L3614775420L
tp4574
Rp4575
sI2804
g1
(g2
g3
L3534994166L
tp4576
Rp4577
sI2805
g1
(g2
g3
L6801240951L
tp4578
Rp4579
sI2806
I448522903
sI2807
g1
(g2
g3
L5843337403L
tp4580
Rp4581
sI2808
g1
(g2
g3
L4796555267L
tp4582
Rp4583
sI2809
g1
(g2
g3
L5898280310L
tp4584
Rp4585
sI2810
I234024387
sI2811
g1
(g2
g3
L9351771542L
tp4586
Rp4587
sI2812
g1
(g2
g3
L4332362502L
tp4588
Rp4589
sI2813
g1
(g2
g3
L8110241884L
tp4590
Rp4591
sI2814
g1
(g2
g3
L4744139130L
tp4592
Rp4593
sI2815
g1
(g2
g3
L5767103564L
tp4594
Rp4595
sI2816
g1
(g2
g3
L8883889207L
tp4596
Rp4597
sI2817
I182050872
sI2818
g1
(g2
g3
L2242591826L
tp4598
Rp4599
sI2819
g1
(g2
g3
L4655775688L
tp4600
Rp4601
sI2820
I139356359
sI2821
g1
(g2
g3
L7298578622L
tp4602
Rp4603
sI2822
g1
(g2
g3
L5873331668L
tp4604
Rp4605
sI2823
g1
(g2
g3
L6221026029L
tp4606
Rp4607
sI2824
g1
(g2
g3
L8267369927L
tp4608
Rp4609
sI2825
g1
(g2
g3
L9554055704L
tp4610
Rp4611
sI2826
I1829325314
sI2827
g1
(g2
g3
L2797644963L
tp4612
Rp4613
sI2828
I904306259
sI2829
g1
(g2
g3
L5536413595L
tp4614
Rp4615
sI2830
g1
(g2
g3
L2815484248L
tp4616
Rp4617
sI2831
I1013908735
sI2832
g1
(g2
g3
L2234191849L
tp4618
Rp4619
sI2833
g1
(g2
g3
L7637677184L
tp4620
Rp4621
sI2834
g1
(g2
g3
L9594436935L
tp4622
Rp4623
sI2835
g1
(g2
g3
L6195214708L
tp4624
Rp4625
sI2836
g1
(g2
g3
L7061845699L
tp4626
Rp4627
sI2837
g1
(g2
g3
L5289438185L
tp4628
Rp4629
sI2838
g1
(g2
g3
L2392807943L
tp4630
Rp4631
sI2839
g1
(g2
g3
L3696576535L
tp4632
Rp4633
sI2840
g1
(g2
g3
L6864398556L
tp4634
Rp4635
sI2841
g1
(g2
g3
L4885576865L
tp4636
Rp4637
sI2842
g1
(g2
g3
L3295682565L
tp4638
Rp4639
sI2843
g1
(g2
g3
L7840245104L
tp4640
Rp4641
sI2844
g1
(g2
g3
L3439126956L
tp4642
Rp4643
sI2845
g1
(g2
g3
L6711102567L
tp4644
Rp4645
sI2846
I1170356234
sI2847
g1
(g2
g3
L5527143495L
tp4646
Rp4647
sI2848
g1
(g2
g3
L9641552971L
tp4648
Rp4649
sI2849
g1
(g2
g3
L4841255095L
tp4650
Rp4651
sI2850
g1
(g2
g3
L4815570950L
tp4652
Rp4653
sI2851
I1910011522
sI2852
g1
(g2
g3
L3004086615L
tp4654
Rp4655
sI2853
g1
(g2
g3
L3359498897L
tp4656
Rp4657
sI2854
g1
(g2
g3
L7734817536L
tp4658
Rp4659
sI2855
g1
(g2
g3
L9275994017L
tp4660
Rp4661
sI2856
I378563487
sI2857
g1
(g2
g3
L4903112318L
tp4662
Rp4663
sI2858
g1
(g2
g3
L4527353951L
tp4664
Rp4665
sI2859
g1
(g2
g3
L6163533399L
tp4666
Rp4667
sI2860
g1
(g2
g3
L8790464818L
tp4668
Rp4669
sI2861
I130015835
sI2862
I31581884
sI2863
g1
(g2
g3
L8332702779L
tp4670
Rp4671
sI2864
g1
(g2
g3
L2523326487L
tp4672
Rp4673
sI2865
g1
(g2
g3
L7131956411L
tp4674
Rp4675
sI2866
g1
(g2
g3
L6092892594L
tp4676
Rp4677
sI2867
I10268300
sI2868
I742182206
sI2869
g1
(g2
g3
L2447272108L
tp4678
Rp4679
sI2870
g1
(g2
g3
L6017716824L
tp4680
Rp4681
sI2871
I323682334
sI2872
g1
(g2
g3
L3721915780L
tp4682
Rp4683
sI2873
g1
(g2
g3
L5996872219L
tp4684
Rp4685
sI2874
g1
(g2
g3
L8021179853L
tp4686
Rp4687
sI2875
g1
(g2
g3
L2176076320L
tp4688
Rp4689
sI2876
g1
(g2
g3
L5617858263L
tp4690
Rp4691
sI2877
g1
(g2
g3
L8734655128L
tp4692
Rp4693
sI2878
I498169980
sI2879
g1
(g2
g3
L4081132365L
tp4694
Rp4695
sI2880
g1
(g2
g3
L5682505714L
tp4696
Rp4697
sI2881
g1
(g2
g3
L6348073991L
tp4698
Rp4699
sI2882
g1
(g2
g3
L7061953587L
tp4700
Rp4701
sI2883
I181644479
sI2884
g1
(g2
g3
L5376835058L
tp4702
Rp4703
sI2885
g1
(g2
g3
L4854249877L
tp4704
Rp4705
sI2886
g1
(g2
g3
L5713969912L
tp4706
Rp4707
sI2887
g1
(g2
g3
L5474915480L
tp4708
Rp4709
sI2888
g1
(g2
g3
L4885437909L
tp4710
Rp4711
sI2889
g1
(g2
g3
L6211824563L
tp4712
Rp4713
sI2890
I224572171
sI2891
g1
(g2
g3
L2162095140L
tp4714
Rp4715
sI2892
g1
(g2
g3
L10397446314L
tp4716
Rp4717
sI2893
g1
(g2
g3
L5638555172L
tp4718
Rp4719
sI2894
I324212647
sI2895
g1
(g2
g3
L3639218713L
tp4720
Rp4721
sI2896
g1
(g2
g3
L4934832526L
tp4722
Rp4723
sI2897
g1
(g2
g3
L8578140489L
tp4724
Rp4725
sI2898
g1
(g2
g3
L9125600558L
tp4726
Rp4727
sI2899
I404703956
sI2900
g1
(g2
g3
L3324305721L
tp4728
Rp4729
sI2901
g1
(g2
g3
L2559080415L
tp4730
Rp4731
sI2902
g1
(g2
g3
L11941647236L
tp4732
Rp4733
sI2903
g1
(g2
g3
L5308050150L
tp4734
Rp4735
sI2904
g1
(g2
g3
L2234154045L
tp4736
Rp4737
sI2905
g1
(g2
g3
L12664112213L
tp4738
Rp4739
sI2906
g1
(g2
g3
L8346118874L
tp4740
Rp4741
sI2907
g1
(g2
g3
L4914067489L
tp4742
Rp4743
sI2908
g1
(g2
g3
L8095090039L
tp4744
Rp4745
sI2909
g1
(g2
g3
L2911113056L
tp4746
Rp4747
sI2910
g1
(g2
g3
L5601204569L
tp4748
Rp4749
sI2911
g1
(g2
g3
L6100186272L
tp4750
Rp4751
sI2912
g1
(g2
g3
L2311128462L
tp4752
Rp4753
sI2913
g1
(g2
g3
L4250688991L
tp4754
Rp4755
sI2914
g1
(g2
g3
L4131108415L
tp4756
Rp4757
sI2915
g1
(g2
g3
L4180662139L
tp4758
Rp4759
sI2916
g1
(g2
g3
L8765392240L
tp4760
Rp4761
sI2917
g1
(g2
g3
L6021909662L
tp4762
Rp4763
sI2918
g1
(g2
g3
L4721751741L
tp4764
Rp4765
sI2919
g1
(g2
g3
L2421228566L
tp4766
Rp4767
sI2920
g1
(g2
g3
L4579757431L
tp4768
Rp4769
sI2921
I457570552
sI2922
g1
(g2
g3
L7568163772L
tp4770
Rp4771
sI2923
g1
(g2
g3
L2412976689L
tp4772
Rp4773
sI2924
g1
(g2
g3
L5861020171L
tp4774
Rp4775
sI2925
g1
(g2
g3
L7062630215L
tp4776
Rp4777
sI2926
I408322210
sI2927
g1
(g2
g3
L3734481044L
tp4778
Rp4779
sI2928
g1
(g2
g3
L5488818849L
tp4780
Rp4781
sI2929
g1
(g2
g3
L2406074938L
tp4782
Rp4783
sI2930
g1
(g2
g3
L5045719409L
tp4784
Rp4785
sI2931
g1
(g2
g3
L2258193795L
tp4786
Rp4787
sI2932
g1
(g2
g3
L5402188138L
tp4788
Rp4789
sI2933
g1
(g2
g3
L11673232064L
tp4790
Rp4791
sI2934
g1
(g2
g3
L2427656348L
tp4792
Rp4793
sI2935
g1
(g2
g3
L4783316975L
tp4794
Rp4795
sI2936
I84593789
sI2937
g1
(g2
g3
L8054968672L
tp4796
Rp4797
sI2938
g1
(g2
g3
L4722823922L
tp4798
Rp4799
sI2939
I32718281
sI2940
g1
(g2
g3
L5401990286L
tp4800
Rp4801
sI2941
g1
(g2
g3
L6539064195L
tp4802
Rp4803
sI2942
g1
(g2
g3
L2771160443L
tp4804
Rp4805
sI2943
g1
(g2
g3
L9594407409L
tp4806
Rp4807
sI2944
I278572869
sI2945
g1
(g2
g3
L4554908198L
tp4808
Rp4809
sI2946
g1
(g2
g3
L2704854506L
tp4810
Rp4811
sI2947
I517925007
sI2948
g1
(g2
g3
L5051321873L
tp4812
Rp4813
sI2949
g1
(g2
g3
L6510006669L
tp4814
Rp4815
sI2950
g1
(g2
g3
L3762508492L
tp4816
Rp4817
sI2951
I250123616
sI2952
g1
(g2
g3
L2481580766L
tp4818
Rp4819
sI2953
I291511698
sI2954
g1
(g2
g3
L2218251487L
tp4820
Rp4821
sI2955
I268096031
sI2956
g1
(g2
g3
L11015419785L
tp4822
Rp4823
sI2957
g1
(g2
g3
L5609717102L
tp4824
Rp4825
s.